
DSO06.elf:     file format elf32-littlenios2
DSO06.elf
architecture: nios2, flags 0x00000112:
EXEC_P, HAS_SYMS, D_PAGED
start address 0x020001bc

Program Header:
    LOAD off    0x00001000 vaddr 0x00000000 paddr 0x00000000 align 2**12
         filesz 0x00000000 memsz 0x00000000 flags r-x
    LOAD off    0x00001020 vaddr 0x02000020 paddr 0x02000020 align 2**12
         filesz 0x00026f2c memsz 0x00049cc8 flags rwx

Sections:
Idx Name          Size      VMA       LMA       File off  Algn
  0 .entry        00000000  00000000  00000000  00001000  2**5
                  CONTENTS, ALLOC, LOAD, READONLY, CODE
  1 .exceptions   0000019c  02000020  02000020  00001020  2**2
                  CONTENTS, ALLOC, LOAD, READONLY, CODE
  2 .text         00023634  020001bc  020001bc  000011bc  2**2
                  CONTENTS, ALLOC, LOAD, READONLY, CODE
  3 .rodata       00001780  020237f0  020237f0  000247f0  2**2
                  CONTENTS, ALLOC, LOAD, READONLY, DATA
  4 .rwdata       00001fdc  02024f70  02024f70  00025f70  2**2
                  CONTENTS, ALLOC, LOAD, DATA, SMALL_DATA
  5 .bss          00022d9c  02026f4c  02026f4c  00027f4c  2**2
                  ALLOC, SMALL_DATA
  6 .comment      00000023  00000000  00000000  00027f4c  2**0
                  CONTENTS, READONLY
  7 .debug_aranges 00001430  00000000  00000000  00027f70  2**3
                  CONTENTS, READONLY, DEBUGGING
  8 .debug_pubnames 00002d08  00000000  00000000  000293a0  2**0
                  CONTENTS, READONLY, DEBUGGING
  9 .debug_info   0003aa80  00000000  00000000  0002c0a8  2**0
                  CONTENTS, READONLY, DEBUGGING
 10 .debug_abbrev 0000cb24  00000000  00000000  00066b28  2**0
                  CONTENTS, READONLY, DEBUGGING
 11 .debug_line   0002582b  00000000  00000000  0007364c  2**0
                  CONTENTS, READONLY, DEBUGGING
 12 .debug_frame  0000347c  00000000  00000000  00098e78  2**2
                  CONTENTS, READONLY, DEBUGGING
 13 .debug_str    00002efc  00000000  00000000  0009c2f4  2**0
                  CONTENTS, READONLY, DEBUGGING
 14 .debug_loc    00011984  00000000  00000000  0009f1f0  2**0
                  CONTENTS, READONLY, DEBUGGING
 15 .debug_alt_sim_info 00000050  00000000  00000000  000b0b74  2**2
                  CONTENTS, READONLY, DEBUGGING
 16 .debug_ranges 00000d98  00000000  00000000  000b0bc8  2**3
                  CONTENTS, READONLY, DEBUGGING
 17 .thread_model 00000006  00000000  00000000  000b7557  2**0
                  CONTENTS, READONLY
 18 .cpu          00000005  00000000  00000000  000b755d  2**0
                  CONTENTS, READONLY
 19 .qsys         00000001  00000000  00000000  000b7562  2**0
                  CONTENTS, READONLY
 20 .simulation_enabled 00000001  00000000  00000000  000b7563  2**0
                  CONTENTS, READONLY
 21 .sysid_hash   00000004  00000000  00000000  000b7564  2**0
                  CONTENTS, READONLY
 22 .sysid_base   00000004  00000000  00000000  000b7568  2**0
                  CONTENTS, READONLY
 23 .sysid_time   00000004  00000000  00000000  000b756c  2**0
                  CONTENTS, READONLY
 24 .stderr_dev   00000004  00000000  00000000  000b7570  2**0
                  CONTENTS, READONLY
 25 .stdin_dev    00000004  00000000  00000000  000b7574  2**0
                  CONTENTS, READONLY
 26 .stdout_dev   00000004  00000000  00000000  000b7578  2**0
                  CONTENTS, READONLY
 27 .sopc_system_name 00000005  00000000  00000000  000b757c  2**0
                  CONTENTS, READONLY
 28 .quartus_project_dir 00000012  00000000  00000000  000b7581  2**0
                  CONTENTS, READONLY
 29 .sopcinfo     0008504f  00000000  00000000  000b7593  2**0
                  CONTENTS, READONLY
SYMBOL TABLE:
00000000 l    d  .entry	00000000 .entry
02000020 l    d  .exceptions	00000000 .exceptions
020001bc l    d  .text	00000000 .text
020237f0 l    d  .rodata	00000000 .rodata
02024f70 l    d  .rwdata	00000000 .rwdata
02026f4c l    d  .bss	00000000 .bss
00000000 l    d  .comment	00000000 .comment
00000000 l    d  .debug_aranges	00000000 .debug_aranges
00000000 l    d  .debug_pubnames	00000000 .debug_pubnames
00000000 l    d  .debug_info	00000000 .debug_info
00000000 l    d  .debug_abbrev	00000000 .debug_abbrev
00000000 l    d  .debug_line	00000000 .debug_line
00000000 l    d  .debug_frame	00000000 .debug_frame
00000000 l    d  .debug_str	00000000 .debug_str
00000000 l    d  .debug_loc	00000000 .debug_loc
00000000 l    d  .debug_alt_sim_info	00000000 .debug_alt_sim_info
00000000 l    d  .debug_ranges	00000000 .debug_ranges
02000200 l       .text	00000000 alt_after_alt_main
00000000 l    df *ABS*	00000000 alt_irq_handler.c
00000000 l    df *ABS*	00000000 FFT.c
00000000 l    df *ABS*	00000000 alt_ucosii_simple_error_check.c
00000000 l    df *ABS*	00000000 app.c
00000000 l    df *ABS*	00000000 dds.c
00000000 l    df *ABS*	00000000 div.c
00000000 l    df *ABS*	00000000 djd.c
00000000 l    df *ABS*	00000000 flash.c
00000000 l    df *ABS*	00000000 ili9320.c
00000000 l    df *ABS*	00000000 key.c
00000000 l    df *ABS*	00000000 main.c
00000000 l    df *ABS*	00000000 tlv5638.c
00000000 l    df *ABS*	00000000 s_cos.c
00000000 l    df *ABS*	00000000 s_sin.c
00000000 l    df *ABS*	00000000 w_pow.c
00000000 l    df *ABS*	00000000 w_sqrt.c
00000000 l    df *ABS*	00000000 e_pow.c
020248e0 l     O .rodata	00000010 bp
020248f0 l     O .rodata	00000010 dp_l
02024900 l     O .rodata	00000010 dp_h
00000000 l    df *ABS*	00000000 e_rem_pio2.c
02024990 l     O .rodata	00000108 two_over_pi
02024910 l     O .rodata	00000080 npio2_hw
00000000 l    df *ABS*	00000000 e_sqrt.c
00000000 l    df *ABS*	00000000 k_cos.c
00000000 l    df *ABS*	00000000 k_rem_pio2.c
02024a98 l     O .rodata	00000010 init_jk
02024aa8 l     O .rodata	00000040 PIo2
00000000 l    df *ABS*	00000000 k_sin.c
00000000 l    df *ABS*	00000000 s_fabs.c
00000000 l    df *ABS*	00000000 s_finite.c
00000000 l    df *ABS*	00000000 s_floor.c
00000000 l    df *ABS*	00000000 s_isnand.c
00000000 l    df *ABS*	00000000 s_lib_ver.c
00000000 l    df *ABS*	00000000 s_matherr.c
00000000 l    df *ABS*	00000000 s_nan.c
00000000 l    df *ABS*	00000000 s_rint.c
02024ae8 l     O .rodata	00000010 TWO52
00000000 l    df *ABS*	00000000 s_scalbn.c
00000000 l    df *ABS*	00000000 s_copysign.c
00000000 l    df *ABS*	00000000 libgcc2.c
00000000 l    df *ABS*	00000000 libgcc2.c
00000000 l    df *ABS*	00000000 libgcc2.c
00000000 l    df *ABS*	00000000 fp-bit.c
0200c530 l     F .text	000001e4 _fpadd_parts
00000000 l    df *ABS*	00000000 fp-bit.c
00000000 l    df *ABS*	00000000 fp-bit.c
00000000 l    df *ABS*	00000000 fp-bit.c
00000000 l    df *ABS*	00000000 fp-bit.c
00000000 l    df *ABS*	00000000 fp-bit.c
00000000 l    df *ABS*	00000000 fp-bit.c
00000000 l    df *ABS*	00000000 fp-bit.c
00000000 l    df *ABS*	00000000 dp-bit.c
0200cd5c l     F .text	00000410 _fpadd_parts
00000000 l    df *ABS*	00000000 dp-bit.c
00000000 l    df *ABS*	00000000 dp-bit.c
00000000 l    df *ABS*	00000000 dp-bit.c
00000000 l    df *ABS*	00000000 dp-bit.c
00000000 l    df *ABS*	00000000 dp-bit.c
00000000 l    df *ABS*	00000000 dp-bit.c
00000000 l    df *ABS*	00000000 dp-bit.c
00000000 l    df *ABS*	00000000 dp-bit.c
00000000 l    df *ABS*	00000000 dp-bit.c
00000000 l    df *ABS*	00000000 dp-bit.c
00000000 l    df *ABS*	00000000 dp-bit.c
00000000 l    df *ABS*	00000000 dp-bit.c
00000000 l    df *ABS*	00000000 dp-bit.c
00000000 l    df *ABS*	00000000 dp-bit.c
00000000 l    df *ABS*	00000000 lib2-divmod.c
0200dfbc l     F .text	0000007c udivmodsi4
00000000 l    df *ABS*	00000000 libgcc2.c
00000000 l    df *ABS*	00000000 libgcc2.c
00000000 l    df *ABS*	00000000 fp-bit.c
00000000 l    df *ABS*	00000000 fp-bit.c
00000000 l    df *ABS*	00000000 fp-bit.c
00000000 l    df *ABS*	00000000 fp-bit.c
00000000 l    df *ABS*	00000000 dp-bit.c
00000000 l    df *ABS*	00000000 dp-bit.c
00000000 l    df *ABS*	00000000 dp-bit.c
00000000 l    df *ABS*	00000000 libgcc2.c
00000000 l    df *ABS*	00000000 errno.c
00000000 l    df *ABS*	00000000 exit.c
00000000 l    df *ABS*	00000000 fprintf.c
00000000 l    df *ABS*	00000000 fwrite.c
00000000 l    df *ABS*	00000000 impure.c
02025384 l     O .rwdata	00000400 impure_data
00000000 l    df *ABS*	00000000 puts.c
00000000 l    df *ABS*	00000000 sprintf.c
00000000 l    df *ABS*	00000000 strlen.c
00000000 l    df *ABS*	00000000 vfprintf.c
0200edb0 l     F .text	00000058 __sprint_r
02024c94 l     O .rodata	00000010 blanks.3452
02024c84 l     O .rodata	00000010 zeroes.3453
00000000 l    df *ABS*	00000000 wsetup.c
00000000 l    df *ABS*	00000000 __call_atexit.c
02010e14 l     F .text	00000004 register_fini
00000000 l    df *ABS*	00000000 dtoa.c
02010fc8 l     F .text	00000218 quorem
00000000 l    df *ABS*	00000000 fflush.c
00000000 l    df *ABS*	00000000 findfp.c
020129c4 l     F .text	00000058 std
02012ad0 l     F .text	00000008 __fp_lock
02012ad8 l     F .text	00000008 __fp_unlock
00000000 l    df *ABS*	00000000 mallocr.c
00000000 l    df *ABS*	00000000 fvwrite.c
00000000 l    df *ABS*	00000000 fwalk.c
00000000 l    df *ABS*	00000000 locale.c
02026e94 l     O .rwdata	00000004 charset
02024cc4 l     O .rodata	00000030 lconv
00000000 l    df *ABS*	00000000 makebuf.c
00000000 l    df *ABS*	00000000 mallocr.c
00000000 l    df *ABS*	00000000 memchr.c
00000000 l    df *ABS*	00000000 memcpy.c
00000000 l    df *ABS*	00000000 memmove.c
00000000 l    df *ABS*	00000000 memset.c
00000000 l    df *ABS*	00000000 mprec.c
02024e0c l     O .rodata	0000000c p05.2458
00000000 l    df *ABS*	00000000 mallocr.c
00000000 l    df *ABS*	00000000 s_isinfd.c
00000000 l    df *ABS*	00000000 sbrkr.c
00000000 l    df *ABS*	00000000 stdio.c
00000000 l    df *ABS*	00000000 strcmp.c
00000000 l    df *ABS*	00000000 writer.c
00000000 l    df *ABS*	00000000 mallocr.c
00000000 l    df *ABS*	00000000 closer.c
00000000 l    df *ABS*	00000000 fclose.c
00000000 l    df *ABS*	00000000 fstatr.c
00000000 l    df *ABS*	00000000 int_errno.c
00000000 l    df *ABS*	00000000 isattyr.c
00000000 l    df *ABS*	00000000 lseekr.c
00000000 l    df *ABS*	00000000 readr.c
00000000 l    df *ABS*	00000000 libgcc2.c
00000000 l    df *ABS*	00000000 libgcc2.c
00000000 l    df *ABS*	00000000 alt_close.c
02016d30 l     F .text	00000060 alt_get_errno
00000000 l    df *ABS*	00000000 alt_dcache_flush.c
00000000 l    df *ABS*	00000000 alt_dev.c
02016e08 l     F .text	0000002c alt_dev_null_write
00000000 l    df *ABS*	00000000 alt_errno.c
00000000 l    df *ABS*	00000000 alt_exit.c
02016e34 l     F .text	00000040 alt_sim_halt
00000000 l    df *ABS*	00000000 alt_flash_dev.c
00000000 l    df *ABS*	00000000 alt_fstat.c
02017044 l     F .text	00000060 alt_get_errno
00000000 l    df *ABS*	00000000 alt_isatty.c
02017164 l     F .text	00000060 alt_get_errno
00000000 l    df *ABS*	00000000 alt_lseek.c
020172b4 l     F .text	00000060 alt_get_errno
00000000 l    df *ABS*	00000000 alt_main.c
00000000 l    df *ABS*	00000000 alt_read.c
020174fc l     F .text	00000060 alt_get_errno
00000000 l    df *ABS*	00000000 alt_release_fd.c
00000000 l    df *ABS*	00000000 alt_sbrk.c
02026ec0 l     O .rwdata	00000004 heap_end
00000000 l    df *ABS*	00000000 alt_usleep.c
00000000 l    df *ABS*	00000000 alt_write.c
020178b0 l     F .text	00000060 alt_get_errno
00000000 l    df *ABS*	00000000 alt_env_lock.c
02026ec4 l     O .rwdata	00000004 lockid
02026f9c l     O .bss	00000004 locks
00000000 l    df *ABS*	00000000 alt_malloc_lock.c
02026ec8 l     O .rwdata	00000004 lockid
02026fa4 l     O .bss	00000004 locks
00000000 l    df *ABS*	00000000 os_core.c
020192e8 l     F .text	00000044 OS_InitMisc
0201932c l     F .text	0000006c OS_InitRdyList
02019490 l     F .text	000000e0 OS_InitTCBList
0201920c l     F .text	000000dc OS_InitEventList
02019398 l     F .text	0000007c OS_InitTaskIdle
02019414 l     F .text	0000007c OS_InitTaskStat
02019704 l     F .text	00000070 OS_SchedNew
00000000 l    df *ABS*	00000000 os_dbg.c
00000000 l    df *ABS*	00000000 os_flag.c
0201b624 l     F .text	00000110 OS_FlagTaskRdy
0201b37c l     F .text	000001c4 OS_FlagBlock
00000000 l    df *ABS*	00000000 os_mem.c
00000000 l    df *ABS*	00000000 os_q.c
00000000 l    df *ABS*	00000000 os_sem.c
00000000 l    df *ABS*	00000000 os_task.c
00000000 l    df *ABS*	00000000 os_time.c
00000000 l    df *ABS*	00000000 alt_sys_init.c
02025d40 l     O .rwdata	000000c8 epcs_flash
02025e08 l     O .rwdata	0000106c jtag
0202002c l     F .text	00000038 alt_dev_reg
00000000 l    df *ABS*	00000000 altera_avalon_epcs_flash_controller.c
020200f0 l     F .text	00000288 alt_epcs_flash_query
020200b8 l     F .text	00000038 alt_flash_device_register
02020378 l     F .text	00000108 alt_epcs_flash_memcmp
02020800 l     F .text	00000094 alt_epcs_test_address
00000000 l    df *ABS*	00000000 altera_avalon_jtag_uart_fd.c
00000000 l    df *ABS*	00000000 altera_avalon_jtag_uart_init.c
02020cc8 l     F .text	000002c4 altera_avalon_jtag_uart_irq
02020f8c l     F .text	00000114 altera_avalon_jtag_uart_timeout
00000000 l    df *ABS*	00000000 altera_avalon_jtag_uart_ioctl.c
00000000 l    df *ABS*	00000000 altera_avalon_jtag_uart_read.c
00000000 l    df *ABS*	00000000 altera_avalon_jtag_uart_write.c
00000000 l    df *ABS*	00000000 altera_avalon_timer_sc.c
020217a4 l     F .text	00000070 alt_avalon_timer_sc_irq
00000000 l    df *ABS*	00000000 epcs_commands.c
020219fc l     F .text	00000038 epcs_await_wip_released
02021a34 l     F .text	00000038 epcs_test_wip
00000000 l    df *ABS*	00000000 alt_alarm_start.c
00000000 l    df *ABS*	00000000 alt_busy_sleep.c
00000000 l    df *ABS*	00000000 alt_dev_llist_insert.c
020222ac l     F .text	00000060 alt_get_errno
00000000 l    df *ABS*	00000000 alt_do_ctors.c
00000000 l    df *ABS*	00000000 alt_do_dtors.c
00000000 l    df *ABS*	00000000 alt_find_dev.c
00000000 l    df *ABS*	00000000 alt_iic.c
00000000 l    df *ABS*	00000000 alt_iic_isr_register.c
00000000 l    df *ABS*	00000000 alt_io_redirect.c
02022734 l     F .text	000000c4 alt_open_fd
00000000 l    df *ABS*	00000000 alt_irq_vars.c
00000000 l    df *ABS*	00000000 alt_open.c
02022870 l     F .text	000000dc alt_file_locked
02022ad4 l     F .text	00000060 alt_get_errno
00000000 l    df *ABS*	00000000 alt_tick.c
00000000 l    df *ABS*	00000000 altera_nios2_qsys_irq.c
00000040 l       *ABS*	00000000 OSCtxSw_SWITCH_PC
00000000 l    df *ABS*	00000000 os_cpu_c.c
00000014 l       *ABS*	00000000 OSTCBNext_OFFSET
00000032 l       *ABS*	00000000 OSTCBPrio_OFFSET
00000000 l       *ABS*	00000000 OSTCBStkPtr_OFFSET
00000000 l    df *ABS*	00000000 altera_avalon_spi.c
00000000 l    df *ABS*	00000000 alt_find_file.c
00000000 l    df *ABS*	00000000 alt_get_fd.c
00000000 l    df *ABS*	00000000 atexit.c
00000000 l    df *ABS*	00000000 memcmp.c
00000000 l    df *ABS*	00000000 __atexit.c
02014780 g     F .text	00000094 _mprec_log10
02026f16 g     O .rwdata	00000002 OSTaskNameSize
02020700 g     F .text	00000090 alt_epcs_flash_get_info
02002294 g     F .text	00000948 DispWave
0201486c g     F .text	00000088 __any_on
02015f48 g     F .text	00000070 _isatty_r
02024de4 g     O .rodata	00000028 __mprec_tinytens
02017314 g     F .text	000000c8 alt_main
02007b48 g     F .text	00000060 PrintTask2
0200ebb4 g     F .text	000000a0 _puts_r
02049a58 g     O .bss	00000100 alt_irq
020041a8 g     F .text	0000045c cp
0200bcac g     F .text	00000018 fabs
02015fb8 g     F .text	00000078 _lseek_r
0201bf18 g     F .text	000000d0 OS_MemInit
020086cc g     F .text	00000130 sqrt
0201ff30 g     F .text	00000064 OSTimeSet
0200d87c g     F .text	00000088 __eqdf2
02025270 g     O .rwdata	00000100 zigzag_data
02017e64 g     F .text	000006b4 OSEventPendMulti
020010b4 g     F .text	000000e8 Save_data
02049ce8 g       *ABS*	00000000 __alt_heap_start
020230dc g     F .text	00000020 OSTaskCreateHook
02026eee g     O .rwdata	00000002 OSMboxEn
0201856c g     F .text	0000007c OSIntEnter
02007ae8 g     F .text	00000060 PrintTask1
02015a14 g     F .text	00000068 __sseek
02012a2c g     F .text	000000a4 __sinit
02026efe g     O .rwdata	00000002 OSQEn
02013704 g     F .text	00000084 _setlocale_r
02012b2c g     F .text	00000068 __sfmoreglue
02017b20 g     F .text	000000d0 __malloc_unlock
02023138 g     F .text	0000001c OSTaskStatHook
02026fac g     O .bss	00000001 OSLockNesting
0200c9c8 g     F .text	00000174 __divsf3
02026f3c g     O .rwdata	00000002 OSDataSize
02026fad g     O .bss	00000001 OSRunning
02004cc8 g     F .text	0000006c ili9320_Clear
020141fc g     F .text	000000e0 memmove
02023170 g     F .text	0000001c OSInitHookBegin
02026f34 g     O .rwdata	00000002 OSTmrSize
02012b1c g     F .text	00000010 _cleanup
02026e80 g     O .rwdata	00000001 VDIV
020148f4 g     F .text	000000bc _Balloc
02005110 g     F .text	00000078 ili9320_GetPoint
0200cbb4 g     F .text	00000094 __fixsfsi
00000000 g       *ABS*	00000000 __alt_mem_epcs_flash
02026fb0 g     O .bss	00000004 OSIdleCtr
02023e38 g     O .rodata	00000474 asc2_1206
0200d98c g     F .text	00000088 __gtdf2
02022da8 g       .text	00000000 OSStartTsk
0200ea30 g     F .text	00000010 __errno
02019a38 g     F .text	000002e0 OS_TCBInit
02021904 g     F .text	000000f8 epcs_sector_erase
00000000 g     F .entry	00000000 __reset
02026f3a g     O .rwdata	00000002 OSTmrWheelTblSize
02026eda g     O .rwdata	00000002 OSEventSize
02005910 g     F .text	00000140 ili9320_DrawPicture
02026fb4 g     O .bss	00000001 OSPrioHighRdy
02015ed4 g     F .text	00000074 _fstat_r
020230fc g     F .text	00000020 OSTaskDelHook
02026f88 g     O .bss	00000004 errno
0200dd7c g     F .text	00000038 __make_dp
0200bce0 g     F .text	00000224 floor
02022d88 g       .text	00000000 OSStartHighRdy
0201e62c g     F .text	00000200 OSTaskCreateExt
0201ae98 g     F .text	00000068 OSFlagPendGetFlagsRdy
02026f1a g     O .rwdata	00000002 OSTaskStatStkSize
0200e4f0 g     F .text	0000002c __make_fp
02019ea4 g     F .text	00000334 OSFlagAccept
0201c650 g     F .text	000000c8 OSQFlush
0201bfe8 g     F .text	00000154 OSQAccept
02026f94 g     O .bss	00000004 alt_argv
0202ee74 g       *ABS*	00000000 _gp
02017678 g     F .text	00000118 usleep
0200c714 g     F .text	00000070 __subsf3
02025170 g     O .rwdata	00000100 triangular_data
0201e458 g     F .text	000001d4 OSTaskCreate
0201dee4 g     F .text	00000574 OSTaskChangePrio
02026fa8 g     O .bss	00000004 alt_heapsem
02019d18 g     F .text	0000018c OSDebugInit
0201e82c g     F .text	0000040c OSTaskDel
02025bc0 g     O .rwdata	00000180 alt_fd_list
02046834 g     O .bss	00000370 OSFlagTbl
02009afc g     F .text	00000828 __ieee754_rem_pio2
02018fe8 g     F .text	000000b8 OS_EventTaskRemove
02021c08 g     F .text	00000064 epcs_write_status_register
020223d4 g     F .text	00000094 alt_find_dev
0201415c g     F .text	000000a0 memcpy
02026f04 g     O .rwdata	00000002 OSRdyTblSize
02012b10 g     F .text	0000000c _cleanup_r
0200dbac g     F .text	000000f8 __floatsidf
020227f8 g     F .text	00000078 alt_io_redirect
0200da9c g     F .text	00000088 __ltdf2
02004a40 g     F .text	00000028 LCD_WriteRAM_Prepare
020237f0 g       *ABS*	00000000 __DTOR_END__
02006310 g     F .text	000017d8 KeyScan
0200ec54 g     F .text	00000014 puts
02017bf0 g     F .text	00000130 OSEventNameGet
02026ee8 g     O .rwdata	00000002 OSFlagMax
02020894 g     F .text	0000011c alt_epcs_flash_write_block
020146d0 g     F .text	000000b0 __ratio
020185e8 g     F .text	00000100 OSIntExit
02026f22 g     O .rwdata	00000002 OSTCBSize
02004604 g     F .text	00000124 Flash_ReadData
02026e82 g     O .rwdata	00000002 TLV5638
02026fb5 g     O .bss	00000001 OSPrioCur
02021208 g     F .text	000002c0 altera_avalon_jtag_uart_read
00000000  w      *UND*	00000000 malloc
0200e0f8 g     F .text	00000008 __udivsi3
020170a4 g     F .text	000000c0 isatty
02026f08 g     O .rwdata	00000002 OSStkWidth
02024cf4 g     O .rodata	000000c8 __mprec_tens
02026efc g     O .rwdata	00000002 OSPtrSize
020136e0 g     F .text	00000008 __locale_charset
0200a5ec g     F .text	0000052c __kernel_cos
02026edc g     O .rwdata	00000002 OSEventTblSize
0200c3d0 g     F .text	000000a4 __fixunsdfsi
02022cfc g       .text	00000000 OSCtxSw
02028834 g     O .bss	0000a000 print_task1_stk
02026f7c g     O .bss	00000004 __malloc_top_pad
02026fb8 g     O .bss	00000004 OSTCBList
02005f30 g     F .text	0000021c ili9320_ShowxNum
02026f8c g     O .bss	00000004 alt_fd_list_lock
02026e90 g     O .rwdata	00000004 __mb_cur_max
0200119c g     F .text	0000020c Play_data
020136e8 g     F .text	0000000c _localeconv_r
02014fec g     F .text	0000003c __i2b
020130c4 g     F .text	0000049c __sfvwrite_r
02046ba4 g     O .bss	00000c30 OSMemTbl
02026fbc g     O .bss	00000001 OSTickStepState
0201599c g     F .text	00000070 _sbrk_r
02026f00 g     O .rwdata	00000002 OSQMax
02025370 g     O .rwdata	00000014 DIV
020477d4 g     O .bss	00000800 OSTaskStatStk
0201bb00 g     F .text	0000010c OSMemNameGet
02026ee0 g     O .rwdata	00000002 OSFlagEn
02016030 g     F .text	00000078 _read_r
02026f26 g     O .rwdata	00000002 OSTimeTickHookEn
02016d90 g     F .text	00000078 alt_dcache_flush
0201cbb4 g     F .text	00000180 OSQPost
0201b734 g     F .text	000000ac OS_FlagUnlink
02004f20 g     F .text	000000c4 ili9320_SetWindows
02025784 g     O .rwdata	0000000c __lc_ctype
02026eb0 g     O .rwdata	00000004 alt_max_fd
020195c4 g     F .text	0000006c OS_MemCopy
02019630 g     F .text	000000d4 OS_Sched
0200e830 g     F .text	00000138 __unpack_d
02015db0 g     F .text	00000110 _fclose_r
0201b9fc g     F .text	00000104 OSMemGet
0201ef60 g     F .text	000001c4 OSTaskNameSet
02012990 g     F .text	00000034 fflush
02026f80 g     O .bss	00000004 __malloc_max_sbrked_mem
02026fc0 g     O .bss	00000004 OSCtxSwCtr
02023154 g     F .text	0000001c OSTimeTickHook
02026eea g     O .rwdata	00000002 OSFlagNameSize
0200b994 g     F .text	00000318 __kernel_sin
0200cc48 g     F .text	00000054 __extendsfdf2
020190a0 g     F .text	00000104 OS_EventTaskRemoveMulti
0200d1ec g     F .text	00000074 __adddf3
02018e94 g     F .text	00000154 OS_EventTaskWaitMulti
02020790 g     F .text	00000070 alt_epcs_flash_erase_block
020145b0 g     F .text	00000120 __b2d
02026f02 g     O .rwdata	00000002 OSQSize
02016684 g     F .text	000005b0 __umoddi3
020171c4 g     F .text	000000f0 lseek
0201d790 g     F .text	0000027c OSSemPend
02026e84 g     O .rwdata	00000004 __fdlib_version
02028434 g     O .bss	00000400 data_in
02026e8c g     O .rwdata	00000004 _global_impure_ptr
02021f20 g     F .text	00000058 epcs_exit_4_bytes_mode
02015368 g     F .text	000005f4 _realloc_r
02026eec g     O .rwdata	00000002 OSLowestPrio
02049ce8 g       *ABS*	00000000 __bss_end
0202263c g     F .text	000000f8 alt_iic_isr_register
020231c4 g     F .text	00000020 OSTCBInitHook
02026f32 g     O .rwdata	00000002 OSTmrCfgTicksPerSec
02022bcc g     F .text	00000110 alt_tick
02002c78 g     F .text	00000064 WritePhasew
020160a8 g     F .text	000005dc __udivdi3
02026ed4 g     O .rwdata	00000002 OSEventEn
02024dbc g     O .rodata	00000028 __mprec_bigtens
02015248 g     F .text	00000120 __s2b
02026f2e g     O .rwdata	00000002 OSTmrCfgNameSize
0200de28 g     F .text	00000194 __floatunsidf
020144d0 g     F .text	00000060 __mcmp
02000204 g     F .text	000000cc EE
020002d0 g     F .text	00000510 FFT
02012af8 g     F .text	00000018 __fp_lock_all
020225f4 g     F .text	00000048 alt_ic_irq_enabled
0201b540 g     F .text	000000e4 OS_FlagInit
02022b34 g     F .text	00000098 alt_alarm_stop
02026f4e g     O .bss	00000001 save_control
02026f10 g     O .rwdata	00000002 OSTaskIdleStkSize
02027000 g     O .bss	00000004 alt_irq_active
0201d31c g     F .text	000000c0 OSSemAccept
0201bd2c g     F .text	000000f0 OSMemPut
0201b7e0 g     F .text	0000021c OSMemCreate
02004a68 g     F .text	00000044 LCD_ReadRAM
02026fc4 g     O .bss	00000004 OSIdleCtrMax
020000ec g     F .exceptions	000000d0 alt_irq_handler
02025b98 g     O .rwdata	00000028 alt_dev_null
02026f24 g     O .rwdata	00000002 OSTicksPerSec
0200ab18 g     F .text	00000e7c __kernel_rem_pio2
020007e0 g     F .text	00000198 FFTpowerMag
0200bf4c g     F .text	00000210 rint
0200e380 g     F .text	000000c8 __unpack_f
02022cfc g       .text	00000000 OSIntCtxSw
02026f58 g     O .bss	00000001 DDSn
0200393c g     F .text	0000037c WrVDiv
0201439c g     F .text	00000070 __hi0bits
0200dca4 g     F .text	000000d8 __fixdfsi
02026fc8 g     O .bss	00000004 OSTCBFreeList
0201da0c g     F .text	0000017c OSSemPendAbort
02026ea8 g     O .rwdata	00000008 alt_dev_list
02017790 g     F .text	00000120 write
02026f28 g     O .rwdata	00000002 OSVersionNbr
02024f70 g     O .rwdata	00000100 square_data
02000e68 g     F .text	0000024c sx
02016f70 g     F .text	000000d4 fstat
0200ea78 g     F .text	0000002c fprintf
02026f60 g     O .bss	00000008 djd_Freq
0200db24 g     F .text	00000088 __ledf2
02026ed0 g     O .rwdata	00000004 OSEndiannessTest
02015128 g     F .text	00000120 __pow5mult
02026f70 g     O .bss	00000004 __nlocale_changed
0200e100 g     F .text	00000008 __umodsi3
02021ddc g     F .text	0000006c epcs_read_electronic_signature
02026ee2 g     O .rwdata	00000002 OSFlagGrpSize
02049ce8 g       *ABS*	00000000 end
02004d34 g     F .text	0000007c ili9320_Display_Oir
0200e220 g     F .text	00000160 __pack_f
02026f5c g     O .bss	00000001 LCKDIV
02020b90 g     F .text	00000138 altera_avalon_jtag_uart_init
020198a8 g     F .text	000000c8 OS_TaskStat
02026e78 g     O .rwdata	00000008 Freq
020056b8 g     F .text	00000258 ili9320_DrawCircle
020237ec g       *ABS*	00000000 __CTOR_LIST__
03000000 g       *ABS*	00000000 __alt_stack_pointer
02021814 g     F .text	00000090 alt_avalon_timer_sc_init
0200e1a0 g     F .text	00000080 __clzsi2
020214c8 g     F .text	000002dc altera_avalon_jtag_uart_write
02007f70 g     F .text	00000168 cos
02012a1c g     F .text	00000004 __sfp_lock_acquire
02014078 g     F .text	000000e4 memchr
02019570 g     F .text	00000054 OS_MemClr
0200ee08 g     F .text	00001eac ___vfprintf_internal_r
02022dcc g     F .text	00000310 OSTaskStkInit
0200ecdc g     F .text	00000060 _sprintf_r
02012db0 g     F .text	00000314 _free_r
02004ea8 g     F .text	00000078 ili9320_BGR2RGB
02018bf0 g     F .text	00000194 OS_EventTaskRdy
020051f0 g     F .text	00000084 ili9320_SetPoint2
02010e18 g     F .text	000001b0 __call_exitprocs
02026fcc g     O .bss	00000001 OSCPUUsage
02026f74 g     O .bss	00000004 __mlocale_changed
02026e9c g     O .rwdata	00000004 __malloc_sbrk_base
020001bc g     F .text	00000048 _start
02027004 g     O .bss	00000004 _alt_tick_rate
0201c718 g     F .text	00000320 OSQPend
020080d8 g     F .text	0000016c sin
0201f924 g     F .text	0000014c OSTimeDly
02014cb8 g     F .text	0000014c __lshift
020231e4 g     F .text	00000238 alt_avalon_spi_command
02027008 g     O .bss	00000004 _alt_nticks
020173dc g     F .text	00000120 read
0201ffc8 g     F .text	00000064 alt_sys_init
020236b8 g     F .text	00000134 __register_exitproc
02026fcd g     O .bss	00000001 OSTaskCtr
02004aac g     F .text	0000021c ili9320_Initializtion
0201fa70 g     F .text	0000024c OSTimeDlyHMSM
02014e04 g     F .text	000001e8 __multiply
020087fc g     F .text	00001300 __ieee754_pow
020210a0 g     F .text	00000074 altera_avalon_jtag_uart_close
02008244 g     F .text	00000488 pow
0202700c g     O .bss	00000028 __malloc_current_mallinfo
02002bdc g     F .text	0000009c WriteFreq
02026ed6 g     O .rwdata	00000002 OSEventMax
020149b0 g     F .text	0000017c __d2b
0201db88 g     F .text	00000128 OSSemPost
020218a4 g     F .text	00000060 epcs_read_status_register
02018774 g     F .text	000000e4 OSSchedUnlock
02005d5c g     F .text	0000005c ili9320_Pow
02020a48 g     F .text	00000058 altera_avalon_jtag_uart_read_fd
0202353c g     F .text	000000f4 alt_get_fd
02005a50 g     F .text	0000030c ili9320_ShowChar
02026fd0 g     O .bss	00000004 OSMemFreeList
020188c8 g     F .text	000000ac OSStatInit
020220cc g     F .text	0000012c alt_busy_sleep
0201b2a8 g     F .text	000000d4 OSFlagQuery
0200e968 g     F .text	000000c8 __fpcmp_parts_d
02026f0c g     O .rwdata	00000002 OSTaskCreateExtEn
02015d40 g     F .text	00000070 _close_r
02005188 g     F .text	00000068 ili9320_SetPoint
02021e48 g     F .text	00000080 epcs_read_device_id
02023644 g     F .text	00000074 memcmp
02018bd4 g     F .text	0000001c OS_Dummy
02020af8 g     F .text	00000048 altera_avalon_jtag_uart_close_fd
02049ce8 g       *ABS*	00000000 __alt_stack_base
02020b40 g     F .text	00000050 altera_avalon_jtag_uart_ioctl_fd
0200ead8 g     F .text	0000009c _fwrite_r
02010cd8 g     F .text	0000013c __swsetup_r
02047fd4 g     O .bss	000001e0 OSQTbl
0200d624 g     F .text	00000258 __divdf3
02012b94 g     F .text	000000f0 __sfp
02014814 g     F .text	00000058 __copybits
02025790 g     O .rwdata	00000408 __malloc_av_
02012a28 g     F .text	00000004 __sinit_lock_release
02002cdc g     F .text	000003e0 DDS_OUT
02026fd4 g     O .bss	00000004 OSTCBHighRdy
0200d260 g     F .text	000003c4 __muldf3
02015af8 g     F .text	00000060 __sread
02024af8 g     O .rodata	00000010 __thenan_sf
02026fd8 g     O .bss	00000004 OSQFreeList
0202341c g     F .text	00000120 alt_find_file
020221f8 g     F .text	000000b4 alt_dev_llist_insert
02017a18 g     F .text	00000108 __malloc_lock
0200eaa4 g     F .text	00000034 _fprintf_r
020175bc g     F .text	000000bc sbrk
02017d20 g     F .text	00000144 OSEventNameSet
02012794 g     F .text	000001fc _fflush_r
02015c8c g     F .text	000000b4 _calloc_r
02026fdc g     O .bss	00000001 OSRdyGrp
0200342c g     F .text	00000078 DDS_Init
02026eb8 g     O .rwdata	00000008 alt_flash_dev_list
02025070 g     O .rwdata	00000100 sin_data
02026f4c g       *ABS*	00000000 __bss_start
020142dc g     F .text	00000098 memset
02007c38 g     F .text	000001d0 main
02004984 g     F .text	00000038 delay_ms
02026f98 g     O .bss	00000004 alt_envp
020242ac g     O .rodata	000005f0 asc2_1608
02026f84 g     O .bss	00000004 __malloc_max_total_mem
02020aa0 g     F .text	00000058 altera_avalon_jtag_uart_write_fd
02024e30 g     O .rodata	00000100 OSUnMapTbl
02026f06 g     O .rwdata	00000002 OSSemEn
02005db8 g     F .text	00000178 ili9320_ShowNum
0201af00 g     F .text	000003a8 OSFlagPost
02015a0c g     F .text	00000008 __sclose
0200bf34 g     F .text	00000008 matherr
020009bc g     F .text	000004ac alt_ucosii_simple_error_handler
03000000 g       *ABS*	00000000 __alt_heap_limit
02001d54 g     F .text	00000540 DispFrame
02015ec0 g     F .text	00000014 fclose
02018d84 g     F .text	00000110 OS_EventTaskWait
0200ddb4 g     F .text	00000074 __truncdfsf2
02019970 g     F .text	000000c8 OS_TaskStatStkChk
02049b58 g     O .bss	00000190 _atexit0
0201ec38 g     F .text	00000170 OSTaskDelReq
020111e0 g     F .text	000015b4 _dtoa_r
02013938 g     F .text	00000740 _malloc_r
02026eb4 g     O .rwdata	00000004 alt_errno
02018858 g     F .text	00000070 OSStart
020179bc g     F .text	0000005c __env_unlock
02013628 g     F .text	000000b8 _fwalk
0201f124 g     F .text	00000218 OSTaskResume
0201be1c g     F .text	000000fc OSMemQuery
02026f18 g     O .rwdata	00000002 OSTaskStatEn
02026f4d g     O .bss	00000001 save_flag
0200614c g     F .text	00000124 ili9320_ShowString
02026ef2 g     O .rwdata	00000002 OSMemMax
0201cd34 g     F .text	00000188 OSQPostFront
02007ba8 g     F .text	00000090 PrintTask3
0200e038 g     F .text	00000060 __divsi3
02026fe0 g     O .bss	00000003 OSRdyTbl
02026ecc g     O .rwdata	00000002 OSDebugEn
02024b08 g     O .rodata	00000014 __thenan_df
02012c84 g     F .text	0000012c _malloc_trim_r
020237f0 g       *ABS*	00000000 __CTOR_END__
0200c7e8 g     F .text	000001e0 __mulsf3
0200bcc4 g     F .text	0000001c finite
02026ee4 g     O .rwdata	00000002 OSFlagNodeSize
02026f2c g     O .rwdata	00000002 OSTmrCfgMax
02004db0 g     F .text	000000f8 ili9320_SetCursor
02020480 g     F .text	00000280 alt_epcs_flash_write
02015b58 g     F .text	000000bc strcmp
0201c13c g     F .text	00000214 OSQCreate
0201eda8 g     F .text	000001b8 OSTaskNameGet
0201cebc g     F .text	00000234 OSQPostOpt
02018974 g     F .text	00000240 OSTimeTick
02026f14 g     O .rwdata	00000002 OSTaskMax
020237f0 g       *ABS*	00000000 __DTOR_LIST__
0201d3dc g     F .text	00000114 OSSemCreate
02026f38 g     O .rwdata	00000002 OSTmrWheelSize
0200c33c g     F .text	00000024 copysign
0200d904 g     F .text	00000088 __nedf2
0200c474 g     F .text	000000bc __fixunsdfdi
02026f0e g     O .rwdata	00000002 OSTaskDelEn
02004114 g     F .text	00000094 ReadDJD
0201dcb0 g     F .text	00000130 OSSemQuery
0201c350 g     F .text	00000300 OSQDel
0201ca38 g     F .text	0000017c OSQPendAbort
0201ff94 g     F .text	00000034 alt_irq_init
0201755c g     F .text	00000060 alt_release_fd
0200ec68 g     F .text	00000074 sprintf
02024b1c g     O .rodata	00000100 __clz_tab
02004728 g     F .text	0000025c Flash_WriteData
02026f78 g     O .bss	00000004 _PathLocale
02026f68 g     O .bss	00000008 lcddev
02007e08 g     F .text	00000124 TLV5638_Write
02023630 g     F .text	00000014 atexit
0200cb3c g     F .text	00000078 __gesf2
02015c14 g     F .text	00000078 _write_r
020186e8 g     F .text	0000008c OSSchedLock
02013788 g     F .text	0000001c setlocale
020049bc g     F .text	0000003c LCD_WriteReg
0201a1d8 g     F .text	0000013c OSFlagCreate
02007f2c g     F .text	00000044 TLV5638_Out
02026e88 g     O .rwdata	00000004 _impure_ptr
02026f90 g     O .bss	00000004 alt_argc
0200c15c g     F .text	000001e0 scalbn
02022370 g     F .text	00000064 _do_dtors
02026ede g     O .rwdata	00000002 OSEventMultiEn
0200560c g     F .text	000000ac ili9320_DrawRectangle
0201a314 g     F .text	000002a8 OSFlagDel
02026fe4 g     O .bss	00000004 OSEventFreeList
02000020 g       .exceptions	00000000 alt_irq_entry
02014530 g     F .text	00000080 __ulp
0201595c g     F .text	00000040 __isinfd
0201a854 g     F .text	00000644 OSFlagPend
02026f2a g     O .rwdata	00000002 OSTmrEn
02012ae0 g     F .text	00000018 __fp_unlock_all
0200319c g     F .text	00000290 DDS_RAM_WR
02027034 g     O .bss	00001000 fft
02026ea0 g     O .rwdata	00000008 alt_fs_list
02000978 g     F .text	00000044 alt_ucosii_check_return_code
02019774 g     F .text	00000080 OS_StrCopy
02028034 g     O .bss	00000400 lBUFMAG
02026ef4 g     O .rwdata	00000002 OSMemNameSize
0200bf3c g     F .text	00000010 nan
0202318c g     F .text	0000001c OSInitHookEnd
02026f20 g     O .rwdata	00000002 OSTCBPrioTblMax
020136f4 g     F .text	00000010 localeconv
02021a6c g     F .text	0000014c epcs_read_buffer
0200a324 g     F .text	000002c8 __ieee754_sqrt
02026f1c g     O .rwdata	00000002 OSTaskStatStkChkEn
02020064 g     F .text	00000054 alt_epcs_flash_init
020034a4 g     F .text	00000498 WrClkDiv
02022468 g     F .text	00000050 alt_ic_isr_register
02026ef0 g     O .rwdata	00000002 OSMemEn
0200eb74 g     F .text	00000040 fwrite
02026efa g     O .rwdata	00000002 OSMutexEn
02026f4c g       *ABS*	00000000 _edata
02049ce8 g       *ABS*	00000000 _end
02016ea0 g     F .text	0000007c alt_flash_open_dev
02026fe8 g     O .bss	00000001 OSIntNesting
02021114 g     F .text	000000f4 altera_avalon_jtag_uart_ioctl
0201fcbc g     F .text	00000210 OSTimeDlyResume
0201a700 g     F .text	00000154 OSFlagNameSet
02032834 g     O .bss	0000a000 print_task3_stk
0201f33c g     F .text	000001fc OSTaskStkChk
02022554 g     F .text	000000a0 alt_ic_irq_disable
02021ec8 g     F .text	00000058 epcs_enter_4_bytes_mode
02026ef6 g     O .rwdata	00000002 OSMemSize
02015a7c g     F .text	0000007c __swrite
02026e98 g     O .rwdata	00000004 __malloc_trim_threshold
02022cdc g     F .text	00000020 altera_nios2_qsys_irq_init
02026fec g     O .bss	00000004 OSTCBCur
0200ea40 g     F .text	00000038 exit
02026ef8 g     O .rwdata	00000002 OSMemTblSize
02013560 g     F .text	000000c8 _fwalk_reent
0200cc9c g     F .text	000000c0 __floatunsisf
02014b2c g     F .text	0000018c __mdiff
02005274 g     F .text	000001c8 ili9320_DrawLine
02016f1c g     F .text	00000054 alt_flash_close_dev
0200e098 g     F .text	00000060 __modsi3
0203c834 g     O .bss	0000a000 print_task2_stk
03000000 g       *ABS*	00000000 __alt_data_end
02000020 g     F .exceptions	00000000 alt_exception
02012a20 g     F .text	00000004 __sfp_lock_release
02026f54 g     O .bss	00000004 Phasew
02018518 g     F .text	00000054 OSInit
02003cb8 g     F .text	0000045c DJDaut
02000000 g       *ABS*	00000000 __alt_mem_sdram
02004fe4 g     F .text	0000012c ili9320_Fill
0201f764 g     F .text	00000144 OSTaskQuery
0201d270 g     F .text	000000ac OS_QInit
020197f4 g     F .text	00000058 OS_StrLen
0201bc0c g     F .text	00000120 OSMemNameSet
02026f4c g     O .bss	00000001 X0
02026f12 g     O .rwdata	00000002 OSTaskProfileEn
02026f50 g     O .bss	00000002 Vpp
02026ff0 g     O .bss	00000004 OSTime
0200c360 g     F .text	00000070 __fixunssfsi
0200e448 g     F .text	000000a8 __fpcmp_parts_f
020481b4 g     O .bss	00000800 OSTaskIdleStk
02016e74 g     F .text	0000002c _exit
0200bf04 g     F .text	00000030 __isnand
02021f78 g     F .text	00000154 alt_alarm_start
0201a5bc g     F .text	00000144 OSFlagNameGet
0201fecc g     F .text	00000064 OSTimeGet
0200e108 g     F .text	00000098 __muldi3
020137a4 g     F .text	00000194 __smakebuf_r
0200ed3c g     F .text	00000074 strlen
02021bb8 g     F .text	00000050 epcs_write_enable
0200543c g     F .text	000001d0 ili9320_DrawLine2
0202311c g     F .text	0000001c OSTaskSwHook
0202294c g     F .text	00000188 open
020489b4 g     O .bss	00000b40 OSEventTbl
0200da14 g     F .text	00000088 __gedf2
020494f4 g     O .bss	00000510 OSTCBTbl
020013a8 g     F .text	000009ac Vpp_printf
0201dde0 g     F .text	00000104 OSSemSet
02026e81 g     O .rwdata	00000001 TRIG_DATA
02026f40 g     O .rwdata	00000004 alt_priority_mask
0201d4f0 g     F .text	000002a0 OSSemDel
02026ff4 g     O .bss	00000004 OSFlagFreeList
020224b8 g     F .text	0000009c alt_ic_irq_enable
02026ed8 g     O .rwdata	00000002 OSEventNameSize
02010cb4 g     F .text	00000024 __vfprintf_internal
02026ff8 g     O .bss	00000001 OSStatRdy
02049a04 g     O .bss	00000054 OSTCBPrioTbl
02017910 g     F .text	000000ac __env_lock
02026f1e g     O .rwdata	00000002 OSTaskSwHookEn
0200d16c g     F .text	00000080 __subdf3
020030bc g     F .text	000000e0 DDS_Phasew
020209b0 g     F .text	00000098 alt_epcs_flash_read
0201440c g     F .text	000000c4 __lo0bits
02026f44 g     O .rwdata	00000008 alt_alarm_list
02026ee6 g     O .rwdata	00000002 OSFlagWidth
0202230c g     F .text	00000064 _do_ctors
02006270 g     F .text	000000a0 Key_XY
02026e74 g     O .rwdata	00000001 Y0
02016c34 g     F .text	000000fc close
0200c784 g     F .text	00000064 __addsf3
02026fa0 g     O .bss	00000004 alt_envsem
02026ffc g     O .bss	00000004 OSIdleCtrRun
020049f8 g     F .text	00000048 LCD_ReadReg
02018bb4 g     F .text	00000020 OSVersion
02026f30 g     O .rwdata	00000002 OSTmrCfgWheelSize
0201f8a8 g     F .text	0000007c OS_TaskStkClr
0200e51c g     F .text	00000314 __pack_d
02026f0a g     O .rwdata	00000002 OSTaskCreateEn
020191a4 g     F .text	00000068 OS_EventWaitListInit
020231a8 g     F .text	0000001c OSTaskIdleHook
00000000  w      *UND*	00000000 free
02012a24 g     F .text	00000004 __sinit_lock_acquire
02021c6c g     F .text	00000170 epcs_write_buffer
02015028 g     F .text	00000100 __multadd
0201f538 g     F .text	0000022c OSTaskSuspend
02014374 g     F .text	00000028 _Bfree
0201984c g     F .text	0000005c OS_TaskIdle
02026f36 g     O .rwdata	00000002 OSTmrTblSize
0201d0f0 g     F .text	00000180 OSQQuery



Disassembly of section .exceptions:

02000020 <alt_exception>:
         * Process an exception.  For all exceptions we must preserve all
         * caller saved registers on the stack (See the Nios2 ABI
         * documentation for details).
         */

        addi  sp, sp, -76
 2000020:	deffed04 	addi	sp,sp,-76

#endif

#endif

        stw   ra,  0(sp)
 2000024:	dfc00015 	stw	ra,0(sp)
        /*
         * Leave a gap in the stack frame at 4(sp) for the muldiv handler to
         * store zero into.
         */

        stw   r1,   8(sp)
 2000028:	d8400215 	stw	at,8(sp)
        stw   r2,  12(sp)
 200002c:	d8800315 	stw	r2,12(sp)
        stw   r3,  16(sp)
 2000030:	d8c00415 	stw	r3,16(sp)
        stw   r4,  20(sp)
 2000034:	d9000515 	stw	r4,20(sp)
        stw   r5,  24(sp)
 2000038:	d9400615 	stw	r5,24(sp)
        stw   r6,  28(sp)
 200003c:	d9800715 	stw	r6,28(sp)
        stw   r7,  32(sp)
 2000040:	d9c00815 	stw	r7,32(sp)

        rdctl r5, estatus
 2000044:	000b307a 	rdctl	r5,estatus

        stw   r8,  36(sp)
 2000048:	da000915 	stw	r8,36(sp)
        stw   r9,  40(sp)
 200004c:	da400a15 	stw	r9,40(sp)
        stw   r10, 44(sp)
 2000050:	da800b15 	stw	r10,44(sp)
        stw   r11, 48(sp)
 2000054:	dac00c15 	stw	r11,48(sp)
        stw   r12, 52(sp)
 2000058:	db000d15 	stw	r12,52(sp)
        stw   r13, 56(sp)
 200005c:	db400e15 	stw	r13,56(sp)
        stw   r14, 60(sp)
 2000060:	db800f15 	stw	r14,60(sp)
        stw   r15, 64(sp)
 2000064:	dbc01015 	stw	r15,64(sp)
        /*
         * ea-4 contains the address of the instruction being executed
         * when the exception occured. For interrupt exceptions, we will
         * will be re-issue the isntruction. Store it in 72(sp)
         */
        stw   r5,  68(sp)  /* estatus */
 2000068:	d9401115 	stw	r5,68(sp)
        addi  r15, ea, -4  /* instruction that caused exception */
 200006c:	ebffff04 	addi	r15,ea,-4
        stw   r15,  72(sp)
 2000070:	dbc01215 	stw	r15,72(sp)
#else
        /*
         * Test to see if the exception was a software exception or caused 
         * by an external interrupt, and vector accordingly.
         */
        rdctl r4, ipending
 2000074:	0009313a 	rdctl	r4,ipending
        andi  r2, r5, 1
 2000078:	2880004c 	andi	r2,r5,1
        beq   r2, zero, .Lnot_irq
 200007c:	10000326 	beq	r2,zero,200008c <alt_exception+0x6c>
        beq   r4, zero, .Lnot_irq
 2000080:	20000226 	beq	r4,zero,200008c <alt_exception+0x6c>
        /*
         * Now that all necessary registers have been preserved, call 
         * alt_irq_handler() to process the interrupts.
         */

        call alt_irq_handler
 2000084:	20000ec0 	call	20000ec <alt_irq_handler>

        .section .exceptions.irqreturn, "xa"

        br    .Lexception_exit
 2000088:	00000306 	br	2000098 <alt_exception+0x78>
         * upon completion, so we write ea (address of instruction *after*
         * the one where the exception occured) into 72(sp). The actual
         * instruction that caused the exception is written in r2, which these
         * handlers will utilize.
         */
        stw   ea,  72(sp)  /* Don't re-issue */
 200008c:	df401215 	stw	ea,72(sp)
        ldw   r2, -4(ea)   /* Instruction that caused exception */
 2000090:	e8bfff17 	ldw	r2,-4(ea)
#ifdef NIOS2_HAS_DEBUG_STUB
       /*
        *  Either tell the user now (if there is a debugger attached) or go into
        *  the debug monitor which will loop until a debugger is attached.
        */
        break
 2000094:	003da03a 	break	0
        /* 
         * Restore the saved registers, so that all general purpose registers 
         * have been restored to their state at the time the interrupt occured.
         */

        ldw   r5,  68(sp)
 2000098:	d9401117 	ldw	r5,68(sp)
        ldw   ea,  72(sp)  /* This becomes the PC once eret is executed */
 200009c:	df401217 	ldw	ea,72(sp)
        ldw   ra,   0(sp)
 20000a0:	dfc00017 	ldw	ra,0(sp)

        wrctl estatus, r5
 20000a4:	2801707a 	wrctl	estatus,r5

        ldw   r1,   8(sp)
 20000a8:	d8400217 	ldw	at,8(sp)
        ldw   r2,  12(sp)
 20000ac:	d8800317 	ldw	r2,12(sp)
        ldw   r3,  16(sp)
 20000b0:	d8c00417 	ldw	r3,16(sp)
        ldw   r4,  20(sp)
 20000b4:	d9000517 	ldw	r4,20(sp)
        ldw   r5,  24(sp)
 20000b8:	d9400617 	ldw	r5,24(sp)
        ldw   r6,  28(sp)
 20000bc:	d9800717 	ldw	r6,28(sp)
        ldw   r7,  32(sp)
 20000c0:	d9c00817 	ldw	r7,32(sp)
#ifdef ALT_STACK_CHECK
        ldw   et, %gprel(alt_exception_old_stack_limit)(gp)
#endif
#endif

        ldw   r8,  36(sp)
 20000c4:	da000917 	ldw	r8,36(sp)
        ldw   r9,  40(sp)
 20000c8:	da400a17 	ldw	r9,40(sp)
        ldw   r10, 44(sp)
 20000cc:	da800b17 	ldw	r10,44(sp)
        ldw   r11, 48(sp)
 20000d0:	dac00c17 	ldw	r11,48(sp)
        ldw   r12, 52(sp)
 20000d4:	db000d17 	ldw	r12,52(sp)
        ldw   r13, 56(sp)
 20000d8:	db400e17 	ldw	r13,56(sp)
        ldw   r14, 60(sp)
 20000dc:	db800f17 	ldw	r14,60(sp)
        ldw   r15, 64(sp)
 20000e0:	dbc01017 	ldw	r15,64(sp)
#endif

        ldw   sp,  76(sp)

#else
        addi  sp, sp, 76
 20000e4:	dec01304 	addi	sp,sp,76

        /*
         * Return to the interrupted instruction.
         */

        eret
 20000e8:	ef80083a 	eret

020000ec <alt_irq_handler>:
 * instruction is present if the macro ALT_CI_INTERRUPT_VECTOR defined.
 */

void alt_irq_handler (void) __attribute__ ((section (".exceptions")));
void alt_irq_handler (void)
{
 20000ec:	defff904 	addi	sp,sp,-28
 20000f0:	dfc00615 	stw	ra,24(sp)
 20000f4:	df000515 	stw	fp,20(sp)
 20000f8:	df000504 	addi	fp,sp,20
  
  /*
   * Notify the operating system that we are at interrupt level.
   */ 
  
  ALT_OS_INT_ENTER();
 20000fc:	201856c0 	call	201856c <OSIntEnter>
#ifndef NIOS2_EIC_PRESENT
static ALT_INLINE alt_u32 ALT_ALWAYS_INLINE alt_irq_pending (void)
{
  alt_u32 active;

  NIOS2_READ_IPENDING (active);
 2000100:	0005313a 	rdctl	r2,ipending
 2000104:	e0bffc15 	stw	r2,-16(fp)

  return active;
 2000108:	e0bffc17 	ldw	r2,-16(fp)
   * Consider the case where the high priority interupt is asserted during
   * the interrupt entry sequence for a lower priority interrupt to see why
   * this is the case.
   */

  active = alt_irq_pending ();
 200010c:	e0bfff15 	stw	r2,-4(fp)

  do
  {
    i = 0;
 2000110:	e03ffd15 	stw	zero,-12(fp)
    mask = 1;
 2000114:	00800044 	movi	r2,1
 2000118:	e0bffe15 	stw	r2,-8(fp)
     * called to clear the interrupt condition.
     */

    do
    {
      if (active & mask)
 200011c:	e0ffff17 	ldw	r3,-4(fp)
 2000120:	e0bffe17 	ldw	r2,-8(fp)
 2000124:	1884703a 	and	r2,r3,r2
 2000128:	1005003a 	cmpeq	r2,r2,zero
 200012c:	1000161e 	bne	r2,zero,2000188 <alt_irq_handler+0x9c>
      { 
#ifdef ALT_ENHANCED_INTERRUPT_API_PRESENT
        alt_irq[i].handler(alt_irq[i].context); 
 2000130:	e0bffd17 	ldw	r2,-12(fp)
 2000134:	00c08174 	movhi	r3,517
 2000138:	18e69604 	addi	r3,r3,-26024
 200013c:	100490fa 	slli	r2,r2,3
 2000140:	10c5883a 	add	r2,r2,r3
 2000144:	11400017 	ldw	r5,0(r2)
 2000148:	e0bffd17 	ldw	r2,-12(fp)
 200014c:	00c08174 	movhi	r3,517
 2000150:	18e69604 	addi	r3,r3,-26024
 2000154:	100490fa 	slli	r2,r2,3
 2000158:	10c5883a 	add	r2,r2,r3
 200015c:	10800104 	addi	r2,r2,4
 2000160:	11000017 	ldw	r4,0(r2)
 2000164:	283ee83a 	callr	r5
#ifndef NIOS2_EIC_PRESENT
static ALT_INLINE alt_u32 ALT_ALWAYS_INLINE alt_irq_pending (void)
{
  alt_u32 active;

  NIOS2_READ_IPENDING (active);
 2000168:	0005313a 	rdctl	r2,ipending
 200016c:	e0bffb15 	stw	r2,-20(fp)

  return active;
 2000170:	e0bffb17 	ldw	r2,-20(fp)
      mask <<= 1;
      i++;

    } while (1);

    active = alt_irq_pending ();
 2000174:	e0bfff15 	stw	r2,-4(fp)
    
  } while (active);
 2000178:	e0bfff17 	ldw	r2,-4(fp)
 200017c:	1004c03a 	cmpne	r2,r2,zero
 2000180:	103fe31e 	bne	r2,zero,2000110 <alt_irq_handler+0x24>
 2000184:	00000706 	br	20001a4 <alt_irq_handler+0xb8>
#else
        alt_irq[i].handler(alt_irq[i].context, i); 
#endif
        break;
      }
      mask <<= 1;
 2000188:	e0bffe17 	ldw	r2,-8(fp)
 200018c:	1085883a 	add	r2,r2,r2
 2000190:	e0bffe15 	stw	r2,-8(fp)
      i++;
 2000194:	e0bffd17 	ldw	r2,-12(fp)
 2000198:	10800044 	addi	r2,r2,1
 200019c:	e0bffd15 	stw	r2,-12(fp)

    } while (1);
 20001a0:	003fde06 	br	200011c <alt_irq_handler+0x30>

  /*
   * Notify the operating system that interrupt processing is complete.
   */ 

  ALT_OS_INT_EXIT();
 20001a4:	20185e80 	call	20185e8 <OSIntExit>
}
 20001a8:	e037883a 	mov	sp,fp
 20001ac:	dfc00117 	ldw	ra,4(sp)
 20001b0:	df000017 	ldw	fp,0(sp)
 20001b4:	dec00204 	addi	sp,sp,8
 20001b8:	f800283a 	ret

Disassembly of section .text:

020001bc <_start>:

    /* Assume the data cache size is always a power of two. */
#if NIOS2_DCACHE_SIZE > 0x8000
    movhi r2, %hi(NIOS2_DCACHE_SIZE)
#else
    movui r2, NIOS2_DCACHE_SIZE
 20001bc:	00820014 	movui	r2,2048
#endif

0:
    initd 0(r2)
 20001c0:	10000033 	initd	0(r2)
    addi r2, r2, -NIOS2_DCACHE_LINE_SIZE
 20001c4:	10bff804 	addi	r2,r2,-32
    bgt r2, zero, 0b
 20001c8:	00bffd16 	blt	zero,r2,20001c0 <_start+0x4>
#if (NIOS2_NUM_OF_SHADOW_REG_SETS == 0)    
    /*
     * Now that the caches are initialized, set up the stack pointer.
     * The value provided by the linker is assumed to be correctly aligned.
     */
    movhi sp, %hi(__alt_stack_pointer)
 20001cc:	06c0c034 	movhi	sp,768
    ori sp, sp, %lo(__alt_stack_pointer)
 20001d0:	dec00014 	ori	sp,sp,0

    /* Set up the global pointer. */
    movhi gp, %hi(_gp)
 20001d4:	068080b4 	movhi	gp,514
    ori gp, gp, %lo(_gp)
 20001d8:	d6bb9d14 	ori	gp,gp,61044
 */
#ifndef ALT_SIM_OPTIMIZE
    /* Log that the BSS is about to be cleared. */
    ALT_LOG_PUTS(alt_log_msg_bss)

    movhi r2, %hi(__bss_start)
 20001dc:	008080b4 	movhi	r2,514
    ori r2, r2, %lo(__bss_start)
 20001e0:	109bd314 	ori	r2,r2,28492

    movhi r3, %hi(__bss_end)
 20001e4:	00c08134 	movhi	r3,516
    ori r3, r3, %lo(__bss_end)
 20001e8:	18e73a14 	ori	r3,r3,40168

    beq r2, r3, 1f
 20001ec:	10c00326 	beq	r2,r3,20001fc <_start+0x40>

0:
    stw zero, (r2)
 20001f0:	10000015 	stw	zero,0(r2)
    addi r2, r2, 4
 20001f4:	10800104 	addi	r2,r2,4
    bltu r2, r3, 0b
 20001f8:	10fffd36 	bltu	r2,r3,20001f0 <_start+0x34>

    /* Log that alt_main is about to be called. */
    ALT_LOG_PUTS(alt_log_msg_alt_main)

    /* Call the C entry point. It should never return. */
    call alt_main
 20001fc:	20173140 	call	2017314 <alt_main>

02000200 <alt_after_alt_main>:

    /* Wait in infinite loop in case alt_main does return. */
alt_after_alt_main:
    br alt_after_alt_main
 2000200:	003fff06 	br	2000200 <alt_after_alt_main>

02000204 <EE>:
#include "FFT.h"
#include "ili9320.h"
compx fft[512];
alt_u32 lBUFMAG[256];
compx EE(compx b1,compx b2)
{
 2000204:	defff704 	addi	sp,sp,-36
 2000208:	dfc00815 	stw	ra,32(sp)
 200020c:	df000715 	stw	fp,28(sp)
 2000210:	dc000615 	stw	r16,24(sp)
 2000214:	df000604 	addi	fp,sp,24
 2000218:	e13ffc15 	stw	r4,-16(fp)
 200021c:	e17ffd15 	stw	r5,-12(fp)
 2000220:	e1bffe15 	stw	r6,-8(fp)
 2000224:	e1ffff15 	stw	r7,-4(fp)
      compx b3;
      b3.real=b1.real*b2.real-b1.imag*b2.imag;
 2000228:	e0bffc17 	ldw	r2,-16(fp)
 200022c:	e0fffe17 	ldw	r3,-8(fp)
 2000230:	1009883a 	mov	r4,r2
 2000234:	180b883a 	mov	r5,r3
 2000238:	200c7e80 	call	200c7e8 <__mulsf3>
 200023c:	1021883a 	mov	r16,r2
 2000240:	e0bffd17 	ldw	r2,-12(fp)
 2000244:	e0ffff17 	ldw	r3,-4(fp)
 2000248:	1009883a 	mov	r4,r2
 200024c:	180b883a 	mov	r5,r3
 2000250:	200c7e80 	call	200c7e8 <__mulsf3>
 2000254:	8009883a 	mov	r4,r16
 2000258:	100b883a 	mov	r5,r2
 200025c:	200c7140 	call	200c714 <__subsf3>
 2000260:	e0bffa15 	stw	r2,-24(fp)
      b3.imag=b1.real*b2.imag+b1.imag*b2.real;
 2000264:	e0bffc17 	ldw	r2,-16(fp)
 2000268:	e0ffff17 	ldw	r3,-4(fp)
 200026c:	1009883a 	mov	r4,r2
 2000270:	180b883a 	mov	r5,r3
 2000274:	200c7e80 	call	200c7e8 <__mulsf3>
 2000278:	1021883a 	mov	r16,r2
 200027c:	e0bffd17 	ldw	r2,-12(fp)
 2000280:	e0fffe17 	ldw	r3,-8(fp)
 2000284:	1009883a 	mov	r4,r2
 2000288:	180b883a 	mov	r5,r3
 200028c:	200c7e80 	call	200c7e8 <__mulsf3>
 2000290:	8009883a 	mov	r4,r16
 2000294:	100b883a 	mov	r5,r2
 2000298:	200c7840 	call	200c784 <__addsf3>
 200029c:	e0bffb15 	stw	r2,-20(fp)
      return(b3);
 20002a0:	e17ffa17 	ldw	r5,-24(fp)
 20002a4:	e1bffb17 	ldw	r6,-20(fp)
 20002a8:	2807883a 	mov	r3,r5
 20002ac:	3009883a 	mov	r4,r6
}
 20002b0:	1805883a 	mov	r2,r3
 20002b4:	2007883a 	mov	r3,r4
 20002b8:	e037883a 	mov	sp,fp
 20002bc:	dfc00217 	ldw	ra,8(sp)
 20002c0:	df000117 	ldw	fp,4(sp)
 20002c4:	dc000017 	ldw	r16,0(sp)
 20002c8:	dec00304 	addi	sp,sp,12
 20002cc:	f800283a 	ret

020002d0 <FFT>:
void FFT(compx *xin,int N)  //NFFT
{
 20002d0:	deffe504 	addi	sp,sp,-108
 20002d4:	dfc01a15 	stw	ra,104(sp)
 20002d8:	df001915 	stw	fp,100(sp)
 20002dc:	dc401815 	stw	r17,96(sp)
 20002e0:	dc001715 	stw	r16,92(sp)
 20002e4:	df001704 	addi	fp,sp,92
 20002e8:	e13ffe15 	stw	r4,-8(fp)
 20002ec:	e17fff15 	stw	r5,-4(fp)
    int f,m,LH,nm,i,k,j,L;
    double p , ps ;
    int le,B,ip;
    const double  pi=3.141592653589793;
 20002f0:	00951134 	movhi	r2,21572
 20002f4:	108b4604 	addi	r2,r2,11544
 20002f8:	e0bfe915 	stw	r2,-92(fp)
 20002fc:	00900274 	movhi	r2,16393
 2000300:	10887ec4 	addi	r2,r2,8699
 2000304:	e0bfea15 	stw	r2,-88(fp)
    compx w,t;
    LH=N/2;
 2000308:	e0ffff17 	ldw	r3,-4(fp)
 200030c:	1804d7fa 	srli	r2,r3,31
 2000310:	10c5883a 	add	r2,r2,r3
 2000314:	1005d07a 	srai	r2,r2,1
 2000318:	e0bff715 	stw	r2,-36(fp)
    f=N;
 200031c:	e0bfff17 	ldw	r2,-4(fp)
 2000320:	e0bff915 	stw	r2,-28(fp)
    for(m=1;(f=f/2)!=1;m++){;}
 2000324:	00800044 	movi	r2,1
 2000328:	e0bff815 	stw	r2,-32(fp)
 200032c:	00000306 	br	200033c <FFT+0x6c>
 2000330:	e0bff817 	ldw	r2,-32(fp)
 2000334:	10800044 	addi	r2,r2,1
 2000338:	e0bff815 	stw	r2,-32(fp)
 200033c:	e0fff917 	ldw	r3,-28(fp)
 2000340:	1804d7fa 	srli	r2,r3,31
 2000344:	10c5883a 	add	r2,r2,r3
 2000348:	1005d07a 	srai	r2,r2,1
 200034c:	e0bff915 	stw	r2,-28(fp)
 2000350:	e0bff917 	ldw	r2,-28(fp)
 2000354:	10800058 	cmpnei	r2,r2,1
 2000358:	103ff51e 	bne	r2,zero,2000330 <FFT+0x60>
    nm=N-2;   
 200035c:	e0bfff17 	ldw	r2,-4(fp)
 2000360:	10bfff84 	addi	r2,r2,-2
 2000364:	e0bff615 	stw	r2,-40(fp)
    j=N/2;
 2000368:	e0ffff17 	ldw	r3,-4(fp)
 200036c:	1804d7fa 	srli	r2,r3,31
 2000370:	10c5883a 	add	r2,r2,r3
 2000374:	1005d07a 	srai	r2,r2,1
 2000378:	e0bff315 	stw	r2,-52(fp)
    
    for(i=1;i<=nm;i++)                    //
 200037c:	00800044 	movi	r2,1
 2000380:	e0bff515 	stw	r2,-44(fp)
 2000384:	00003906 	br	200046c <FFT+0x19c>
    {
        if(i<j){t=xin[j];xin[j]=xin[i];xin[i]=t;}
 2000388:	e0fff517 	ldw	r3,-44(fp)
 200038c:	e0bff317 	ldw	r2,-52(fp)
 2000390:	1880200e 	bge	r3,r2,2000414 <FFT+0x144>
 2000394:	e0bff317 	ldw	r2,-52(fp)
 2000398:	100490fa 	slli	r2,r2,3
 200039c:	1007883a 	mov	r3,r2
 20003a0:	e0bffe17 	ldw	r2,-8(fp)
 20003a4:	1889883a 	add	r4,r3,r2
 20003a8:	20800017 	ldw	r2,0(r4)
 20003ac:	20c00117 	ldw	r3,4(r4)
 20003b0:	e0bffc15 	stw	r2,-16(fp)
 20003b4:	e0fffd15 	stw	r3,-12(fp)
 20003b8:	e0bff317 	ldw	r2,-52(fp)
 20003bc:	100490fa 	slli	r2,r2,3
 20003c0:	1007883a 	mov	r3,r2
 20003c4:	e0bffe17 	ldw	r2,-8(fp)
 20003c8:	188b883a 	add	r5,r3,r2
 20003cc:	e0bff517 	ldw	r2,-44(fp)
 20003d0:	100490fa 	slli	r2,r2,3
 20003d4:	1007883a 	mov	r3,r2
 20003d8:	e0bffe17 	ldw	r2,-8(fp)
 20003dc:	1889883a 	add	r4,r3,r2
 20003e0:	20800017 	ldw	r2,0(r4)
 20003e4:	20c00117 	ldw	r3,4(r4)
 20003e8:	28800015 	stw	r2,0(r5)
 20003ec:	28c00115 	stw	r3,4(r5)
 20003f0:	e0bff517 	ldw	r2,-44(fp)
 20003f4:	100490fa 	slli	r2,r2,3
 20003f8:	1007883a 	mov	r3,r2
 20003fc:	e0bffe17 	ldw	r2,-8(fp)
 2000400:	1887883a 	add	r3,r3,r2
 2000404:	e0bffc17 	ldw	r2,-16(fp)
 2000408:	18800015 	stw	r2,0(r3)
 200040c:	e0bffd17 	ldw	r2,-12(fp)
 2000410:	18800115 	stw	r2,4(r3)
        k=LH;
 2000414:	e0bff717 	ldw	r2,-36(fp)
 2000418:	e0bff415 	stw	r2,-48(fp)
        while(j>=k){j=j-k;k=k/2;}
 200041c:	00000906 	br	2000444 <FFT+0x174>
 2000420:	e0fff317 	ldw	r3,-52(fp)
 2000424:	e0bff417 	ldw	r2,-48(fp)
 2000428:	1885c83a 	sub	r2,r3,r2
 200042c:	e0bff315 	stw	r2,-52(fp)
 2000430:	e0fff417 	ldw	r3,-48(fp)
 2000434:	1804d7fa 	srli	r2,r3,31
 2000438:	10c5883a 	add	r2,r2,r3
 200043c:	1005d07a 	srai	r2,r2,1
 2000440:	e0bff415 	stw	r2,-48(fp)
 2000444:	e0fff317 	ldw	r3,-52(fp)
 2000448:	e0bff417 	ldw	r2,-48(fp)
 200044c:	18bff40e 	bge	r3,r2,2000420 <FFT+0x150>
        j=j+k;
 2000450:	e0fff317 	ldw	r3,-52(fp)
 2000454:	e0bff417 	ldw	r2,-48(fp)
 2000458:	1885883a 	add	r2,r3,r2
 200045c:	e0bff315 	stw	r2,-52(fp)
    f=N;
    for(m=1;(f=f/2)!=1;m++){;}
    nm=N-2;   
    j=N/2;
    
    for(i=1;i<=nm;i++)                    //
 2000460:	e0bff517 	ldw	r2,-44(fp)
 2000464:	10800044 	addi	r2,r2,1
 2000468:	e0bff515 	stw	r2,-44(fp)
 200046c:	e0fff517 	ldw	r3,-44(fp)
 2000470:	e0bff617 	ldw	r2,-40(fp)
 2000474:	10ffc40e 	bge	r2,r3,2000388 <FFT+0xb8>
        k=LH;
        while(j>=k){j=j-k;k=k/2;}
        j=j+k;
    }

    for(L=1;L<=m;L++)
 2000478:	00800044 	movi	r2,1
 200047c:	e0bff215 	stw	r2,-56(fp)
 2000480:	0000cd06 	br	20007b8 <FFT+0x4e8>
    { 
        le=(int)pow((double)2,L);                     //(VS2005pow)
 2000484:	e13ff217 	ldw	r4,-56(fp)
 2000488:	200dbac0 	call	200dbac <__floatsidf>
 200048c:	100f883a 	mov	r7,r2
 2000490:	1811883a 	mov	r8,r3
 2000494:	0009883a 	mov	r4,zero
 2000498:	01500034 	movhi	r5,16384
 200049c:	380d883a 	mov	r6,r7
 20004a0:	400f883a 	mov	r7,r8
 20004a4:	20082440 	call	2008244 <pow>
 20004a8:	1009883a 	mov	r4,r2
 20004ac:	180b883a 	mov	r5,r3
 20004b0:	2005883a 	mov	r2,r4
 20004b4:	2807883a 	mov	r3,r5
 20004b8:	1009883a 	mov	r4,r2
 20004bc:	180b883a 	mov	r5,r3
 20004c0:	200dca40 	call	200dca4 <__fixdfsi>
 20004c4:	e0bfed15 	stw	r2,-76(fp)
        B=le/2;
 20004c8:	e0ffed17 	ldw	r3,-76(fp)
 20004cc:	1804d7fa 	srli	r2,r3,31
 20004d0:	10c5883a 	add	r2,r2,r3
 20004d4:	1005d07a 	srai	r2,r2,1
 20004d8:	e0bfec15 	stw	r2,-80(fp)
         for(j=0;j<=B-1;j++)
 20004dc:	e03ff315 	stw	zero,-52(fp)
 20004e0:	0000ae06 	br	200079c <FFT+0x4cc>
          {
               p=pow((double)2,m-L)*j;
 20004e4:	e0fff817 	ldw	r3,-32(fp)
 20004e8:	e0bff217 	ldw	r2,-56(fp)
 20004ec:	1889c83a 	sub	r4,r3,r2
 20004f0:	200dbac0 	call	200dbac <__floatsidf>
 20004f4:	100f883a 	mov	r7,r2
 20004f8:	1811883a 	mov	r8,r3
 20004fc:	0009883a 	mov	r4,zero
 2000500:	01500034 	movhi	r5,16384
 2000504:	380d883a 	mov	r6,r7
 2000508:	400f883a 	mov	r7,r8
 200050c:	20082440 	call	2008244 <pow>
 2000510:	1021883a 	mov	r16,r2
 2000514:	1823883a 	mov	r17,r3
 2000518:	e13ff317 	ldw	r4,-52(fp)
 200051c:	200dbac0 	call	200dbac <__floatsidf>
 2000520:	100f883a 	mov	r7,r2
 2000524:	1811883a 	mov	r8,r3
 2000528:	8009883a 	mov	r4,r16
 200052c:	880b883a 	mov	r5,r17
 2000530:	380d883a 	mov	r6,r7
 2000534:	400f883a 	mov	r7,r8
 2000538:	200d2600 	call	200d260 <__muldf3>
 200053c:	1009883a 	mov	r4,r2
 2000540:	180b883a 	mov	r5,r3
 2000544:	e13ff015 	stw	r4,-64(fp)
 2000548:	e17ff115 	stw	r5,-60(fp)
               ps=2*pi/N*p;
 200054c:	e0bfe917 	ldw	r2,-92(fp)
 2000550:	e0ffea17 	ldw	r3,-88(fp)
 2000554:	1009883a 	mov	r4,r2
 2000558:	180b883a 	mov	r5,r3
 200055c:	100d883a 	mov	r6,r2
 2000560:	180f883a 	mov	r7,r3
 2000564:	200d1ec0 	call	200d1ec <__adddf3>
 2000568:	1009883a 	mov	r4,r2
 200056c:	180b883a 	mov	r5,r3
 2000570:	2021883a 	mov	r16,r4
 2000574:	2823883a 	mov	r17,r5
 2000578:	e13fff17 	ldw	r4,-4(fp)
 200057c:	200dbac0 	call	200dbac <__floatsidf>
 2000580:	100f883a 	mov	r7,r2
 2000584:	1811883a 	mov	r8,r3
 2000588:	8009883a 	mov	r4,r16
 200058c:	880b883a 	mov	r5,r17
 2000590:	380d883a 	mov	r6,r7
 2000594:	400f883a 	mov	r7,r8
 2000598:	200d6240 	call	200d624 <__divdf3>
 200059c:	1009883a 	mov	r4,r2
 20005a0:	180b883a 	mov	r5,r3
 20005a4:	2005883a 	mov	r2,r4
 20005a8:	2807883a 	mov	r3,r5
 20005ac:	1009883a 	mov	r4,r2
 20005b0:	180b883a 	mov	r5,r3
 20005b4:	e1bff017 	ldw	r6,-64(fp)
 20005b8:	e1fff117 	ldw	r7,-60(fp)
 20005bc:	200d2600 	call	200d260 <__muldf3>
 20005c0:	1009883a 	mov	r4,r2
 20005c4:	180b883a 	mov	r5,r3
 20005c8:	e13fee15 	stw	r4,-72(fp)
 20005cc:	e17fef15 	stw	r5,-68(fp)
               w.real=cos(ps);                       //
 20005d0:	e13fee17 	ldw	r4,-72(fp)
 20005d4:	e17fef17 	ldw	r5,-68(fp)
 20005d8:	2007f700 	call	2007f70 <cos>
 20005dc:	100b883a 	mov	r5,r2
 20005e0:	180d883a 	mov	r6,r3
 20005e4:	2809883a 	mov	r4,r5
 20005e8:	300b883a 	mov	r5,r6
 20005ec:	200ddb40 	call	200ddb4 <__truncdfsf2>
 20005f0:	e0bffa15 	stw	r2,-24(fp)
               w.imag=-sin(ps);
 20005f4:	e13fee17 	ldw	r4,-72(fp)
 20005f8:	e17fef17 	ldw	r5,-68(fp)
 20005fc:	20080d80 	call	20080d8 <sin>
 2000600:	100b883a 	mov	r5,r2
 2000604:	180d883a 	mov	r6,r3
 2000608:	2809883a 	mov	r4,r5
 200060c:	300b883a 	mov	r5,r6
 2000610:	200ddb40 	call	200ddb4 <__truncdfsf2>
 2000614:	10a0003c 	xorhi	r2,r2,32768
 2000618:	e0bffb15 	stw	r2,-20(fp)
               for(i=j;i<=N-1;i=i+le)                //
 200061c:	e0bff317 	ldw	r2,-52(fp)
 2000620:	e0bff515 	stw	r2,-44(fp)
 2000624:	00005606 	br	2000780 <FFT+0x4b0>
                 {
                      ip=i+B;
 2000628:	e0fff517 	ldw	r3,-44(fp)
 200062c:	e0bfec17 	ldw	r2,-80(fp)
 2000630:	1885883a 	add	r2,r3,r2
 2000634:	e0bfeb15 	stw	r2,-84(fp)
                      t=EE(xin[ip],w);
 2000638:	e0bfeb17 	ldw	r2,-84(fp)
 200063c:	100490fa 	slli	r2,r2,3
 2000640:	1007883a 	mov	r3,r2
 2000644:	e0bffe17 	ldw	r2,-8(fp)
 2000648:	1885883a 	add	r2,r3,r2
 200064c:	11000017 	ldw	r4,0(r2)
 2000650:	11400117 	ldw	r5,4(r2)
 2000654:	e1bffa17 	ldw	r6,-24(fp)
 2000658:	e1fffb17 	ldw	r7,-20(fp)
 200065c:	20002040 	call	2000204 <EE>
 2000660:	1009883a 	mov	r4,r2
 2000664:	180b883a 	mov	r5,r3
 2000668:	e13ffc15 	stw	r4,-16(fp)
 200066c:	e17ffd15 	stw	r5,-12(fp)
                      xin[ip].real=xin[i].real-t.real;
 2000670:	e0bfeb17 	ldw	r2,-84(fp)
 2000674:	100490fa 	slli	r2,r2,3
 2000678:	1007883a 	mov	r3,r2
 200067c:	e0bffe17 	ldw	r2,-8(fp)
 2000680:	18a1883a 	add	r16,r3,r2
 2000684:	e0bff517 	ldw	r2,-44(fp)
 2000688:	100490fa 	slli	r2,r2,3
 200068c:	1007883a 	mov	r3,r2
 2000690:	e0bffe17 	ldw	r2,-8(fp)
 2000694:	1885883a 	add	r2,r3,r2
 2000698:	10800017 	ldw	r2,0(r2)
 200069c:	e0fffc17 	ldw	r3,-16(fp)
 20006a0:	1009883a 	mov	r4,r2
 20006a4:	180b883a 	mov	r5,r3
 20006a8:	200c7140 	call	200c714 <__subsf3>
 20006ac:	80800015 	stw	r2,0(r16)
                      xin[ip].imag=xin[i].imag-t.imag;
 20006b0:	e0bfeb17 	ldw	r2,-84(fp)
 20006b4:	100490fa 	slli	r2,r2,3
 20006b8:	1007883a 	mov	r3,r2
 20006bc:	e0bffe17 	ldw	r2,-8(fp)
 20006c0:	18a1883a 	add	r16,r3,r2
 20006c4:	e0bff517 	ldw	r2,-44(fp)
 20006c8:	100490fa 	slli	r2,r2,3
 20006cc:	1007883a 	mov	r3,r2
 20006d0:	e0bffe17 	ldw	r2,-8(fp)
 20006d4:	1885883a 	add	r2,r3,r2
 20006d8:	10800117 	ldw	r2,4(r2)
 20006dc:	e0fffd17 	ldw	r3,-12(fp)
 20006e0:	1009883a 	mov	r4,r2
 20006e4:	180b883a 	mov	r5,r3
 20006e8:	200c7140 	call	200c714 <__subsf3>
 20006ec:	80800115 	stw	r2,4(r16)
                      xin[i].real=xin[i].real+t.real;
 20006f0:	e0bff517 	ldw	r2,-44(fp)
 20006f4:	100490fa 	slli	r2,r2,3
 20006f8:	1007883a 	mov	r3,r2
 20006fc:	e0bffe17 	ldw	r2,-8(fp)
 2000700:	18a1883a 	add	r16,r3,r2
 2000704:	e0bff517 	ldw	r2,-44(fp)
 2000708:	100490fa 	slli	r2,r2,3
 200070c:	1007883a 	mov	r3,r2
 2000710:	e0bffe17 	ldw	r2,-8(fp)
 2000714:	1885883a 	add	r2,r3,r2
 2000718:	10800017 	ldw	r2,0(r2)
 200071c:	e0fffc17 	ldw	r3,-16(fp)
 2000720:	1009883a 	mov	r4,r2
 2000724:	180b883a 	mov	r5,r3
 2000728:	200c7840 	call	200c784 <__addsf3>
 200072c:	80800015 	stw	r2,0(r16)
                      xin[i].imag=xin[i].imag+t.imag;
 2000730:	e0bff517 	ldw	r2,-44(fp)
 2000734:	100490fa 	slli	r2,r2,3
 2000738:	1007883a 	mov	r3,r2
 200073c:	e0bffe17 	ldw	r2,-8(fp)
 2000740:	18a1883a 	add	r16,r3,r2
 2000744:	e0bff517 	ldw	r2,-44(fp)
 2000748:	100490fa 	slli	r2,r2,3
 200074c:	1007883a 	mov	r3,r2
 2000750:	e0bffe17 	ldw	r2,-8(fp)
 2000754:	1885883a 	add	r2,r3,r2
 2000758:	10800117 	ldw	r2,4(r2)
 200075c:	e0fffd17 	ldw	r3,-12(fp)
 2000760:	1009883a 	mov	r4,r2
 2000764:	180b883a 	mov	r5,r3
 2000768:	200c7840 	call	200c784 <__addsf3>
 200076c:	80800115 	stw	r2,4(r16)
          {
               p=pow((double)2,m-L)*j;
               ps=2*pi/N*p;
               w.real=cos(ps);                       //
               w.imag=-sin(ps);
               for(i=j;i<=N-1;i=i+le)                //
 2000770:	e0fff517 	ldw	r3,-44(fp)
 2000774:	e0bfed17 	ldw	r2,-76(fp)
 2000778:	1885883a 	add	r2,r3,r2
 200077c:	e0bff515 	stw	r2,-44(fp)
 2000780:	e0bfff17 	ldw	r2,-4(fp)
 2000784:	10ffffc4 	addi	r3,r2,-1
 2000788:	e0bff517 	ldw	r2,-44(fp)
 200078c:	18bfa60e 	bge	r3,r2,2000628 <FFT+0x358>

    for(L=1;L<=m;L++)
    { 
        le=(int)pow((double)2,L);                     //(VS2005pow)
        B=le/2;
         for(j=0;j<=B-1;j++)
 2000790:	e0bff317 	ldw	r2,-52(fp)
 2000794:	10800044 	addi	r2,r2,1
 2000798:	e0bff315 	stw	r2,-52(fp)
 200079c:	e0bfec17 	ldw	r2,-80(fp)
 20007a0:	10ffffc4 	addi	r3,r2,-1
 20007a4:	e0bff317 	ldw	r2,-52(fp)
 20007a8:	18bf4e0e 	bge	r3,r2,20004e4 <FFT+0x214>
        k=LH;
        while(j>=k){j=j-k;k=k/2;}
        j=j+k;
    }

    for(L=1;L<=m;L++)
 20007ac:	e0bff217 	ldw	r2,-56(fp)
 20007b0:	10800044 	addi	r2,r2,1
 20007b4:	e0bff215 	stw	r2,-56(fp)
 20007b8:	e0fff217 	ldw	r3,-56(fp)
 20007bc:	e0bff817 	ldw	r2,-32(fp)
 20007c0:	10ff300e 	bge	r2,r3,2000484 <FFT+0x1b4>
                      xin[i].real=xin[i].real+t.real;
                      xin[i].imag=xin[i].imag+t.imag;
                 }
          }
    }
}
 20007c4:	e037883a 	mov	sp,fp
 20007c8:	dfc00317 	ldw	ra,12(sp)
 20007cc:	df000217 	ldw	fp,8(sp)
 20007d0:	dc400117 	ldw	r17,4(sp)
 20007d4:	dc000017 	ldw	r16,0(sp)
 20007d8:	dec00404 	addi	sp,sp,16
 20007dc:	f800283a 	ret

020007e0 <FFTpowerMag>:
//-------------------------------------------------------------------------
//
//-------------------------------------------------------------------------

void FFTpowerMag(compx *xin,alt_u32 *BUFMAG, int N)
{
 20007e0:	defff604 	addi	sp,sp,-40
 20007e4:	dfc00915 	stw	ra,36(sp)
 20007e8:	df000815 	stw	fp,32(sp)
 20007ec:	dc400715 	stw	r17,28(sp)
 20007f0:	dc000615 	stw	r16,24(sp)
 20007f4:	df000604 	addi	fp,sp,24
 20007f8:	e13ffd15 	stw	r4,-12(fp)
 20007fc:	e17ffe15 	stw	r5,-8(fp)
 2000800:	e1bfff15 	stw	r6,-4(fp)
	alt_u32 i;
  for (i=0; i < N; i++)
 2000804:	e03ffc15 	stw	zero,-16(fp)
 2000808:	00004c06 	br	200093c <FFTpowerMag+0x15c>
  {
     double Mag = (sqrt(xin[i].real*xin[i].real+ xin[i].imag*xin[i].imag))*2.0f/N;		 // ,
 200080c:	e0bffc17 	ldw	r2,-16(fp)
 2000810:	100490fa 	slli	r2,r2,3
 2000814:	1007883a 	mov	r3,r2
 2000818:	e0bffd17 	ldw	r2,-12(fp)
 200081c:	1885883a 	add	r2,r3,r2
 2000820:	11000017 	ldw	r4,0(r2)
 2000824:	e0bffc17 	ldw	r2,-16(fp)
 2000828:	100490fa 	slli	r2,r2,3
 200082c:	1007883a 	mov	r3,r2
 2000830:	e0bffd17 	ldw	r2,-12(fp)
 2000834:	1885883a 	add	r2,r3,r2
 2000838:	10800017 	ldw	r2,0(r2)
 200083c:	100b883a 	mov	r5,r2
 2000840:	200c7e80 	call	200c7e8 <__mulsf3>
 2000844:	1021883a 	mov	r16,r2
 2000848:	e0bffc17 	ldw	r2,-16(fp)
 200084c:	100490fa 	slli	r2,r2,3
 2000850:	1007883a 	mov	r3,r2
 2000854:	e0bffd17 	ldw	r2,-12(fp)
 2000858:	1885883a 	add	r2,r3,r2
 200085c:	11000117 	ldw	r4,4(r2)
 2000860:	e0bffc17 	ldw	r2,-16(fp)
 2000864:	100490fa 	slli	r2,r2,3
 2000868:	1007883a 	mov	r3,r2
 200086c:	e0bffd17 	ldw	r2,-12(fp)
 2000870:	1885883a 	add	r2,r3,r2
 2000874:	10800117 	ldw	r2,4(r2)
 2000878:	100b883a 	mov	r5,r2
 200087c:	200c7e80 	call	200c7e8 <__mulsf3>
 2000880:	8009883a 	mov	r4,r16
 2000884:	100b883a 	mov	r5,r2
 2000888:	200c7840 	call	200c784 <__addsf3>
 200088c:	1009883a 	mov	r4,r2
 2000890:	200cc480 	call	200cc48 <__extendsfdf2>
 2000894:	100b883a 	mov	r5,r2
 2000898:	180d883a 	mov	r6,r3
 200089c:	2809883a 	mov	r4,r5
 20008a0:	300b883a 	mov	r5,r6
 20008a4:	20086cc0 	call	20086cc <sqrt>
 20008a8:	100f883a 	mov	r7,r2
 20008ac:	1811883a 	mov	r8,r3
 20008b0:	3809883a 	mov	r4,r7
 20008b4:	400b883a 	mov	r5,r8
 20008b8:	380d883a 	mov	r6,r7
 20008bc:	400f883a 	mov	r7,r8
 20008c0:	200d1ec0 	call	200d1ec <__adddf3>
 20008c4:	1009883a 	mov	r4,r2
 20008c8:	180b883a 	mov	r5,r3
 20008cc:	2021883a 	mov	r16,r4
 20008d0:	2823883a 	mov	r17,r5
 20008d4:	e13fff17 	ldw	r4,-4(fp)
 20008d8:	200dbac0 	call	200dbac <__floatsidf>
 20008dc:	100f883a 	mov	r7,r2
 20008e0:	1811883a 	mov	r8,r3
 20008e4:	8009883a 	mov	r4,r16
 20008e8:	880b883a 	mov	r5,r17
 20008ec:	380d883a 	mov	r6,r7
 20008f0:	400f883a 	mov	r7,r8
 20008f4:	200d6240 	call	200d624 <__divdf3>
 20008f8:	1009883a 	mov	r4,r2
 20008fc:	180b883a 	mov	r5,r3
 2000900:	e13ffa15 	stw	r4,-24(fp)
 2000904:	e17ffb15 	stw	r5,-20(fp)
     BUFMAG[i] = (alt_u32)(Mag);
 2000908:	e0bffc17 	ldw	r2,-16(fp)
 200090c:	1085883a 	add	r2,r2,r2
 2000910:	1085883a 	add	r2,r2,r2
 2000914:	1007883a 	mov	r3,r2
 2000918:	e0bffe17 	ldw	r2,-8(fp)
 200091c:	18a1883a 	add	r16,r3,r2
 2000920:	e13ffa17 	ldw	r4,-24(fp)
 2000924:	e17ffb17 	ldw	r5,-20(fp)
 2000928:	200c3d00 	call	200c3d0 <__fixunsdfsi>
 200092c:	80800015 	stw	r2,0(r16)
//-------------------------------------------------------------------------

void FFTpowerMag(compx *xin,alt_u32 *BUFMAG, int N)
{
	alt_u32 i;
  for (i=0; i < N; i++)
 2000930:	e0bffc17 	ldw	r2,-16(fp)
 2000934:	10800044 	addi	r2,r2,1
 2000938:	e0bffc15 	stw	r2,-16(fp)
 200093c:	e0ffff17 	ldw	r3,-4(fp)
 2000940:	e0bffc17 	ldw	r2,-16(fp)
 2000944:	10ffb136 	bltu	r2,r3,200080c <FFTpowerMag+0x2c>
  {
     double Mag = (sqrt(xin[i].real*xin[i].real+ xin[i].imag*xin[i].imag))*2.0f/N;		 // ,
     BUFMAG[i] = (alt_u32)(Mag);
   
  }
  BUFMAG[0] =	BUFMAG[0]/4;//
 2000948:	e0bffe17 	ldw	r2,-8(fp)
 200094c:	10800017 	ldw	r2,0(r2)
 2000950:	1006d0ba 	srli	r3,r2,2
 2000954:	e0bffe17 	ldw	r2,-8(fp)
 2000958:	10c00015 	stw	r3,0(r2)
}
 200095c:	e037883a 	mov	sp,fp
 2000960:	dfc00317 	ldw	ra,12(sp)
 2000964:	df000217 	ldw	fp,8(sp)
 2000968:	dc400117 	ldw	r17,4(sp)
 200096c:	dc000017 	ldw	r16,0(sp)
 2000970:	dec00404 	addi	sp,sp,16
 2000974:	f800283a 	ret

02000978 <alt_ucosii_check_return_code>:
 */
 

 
void alt_ucosii_check_return_code(INT8U return_code)
{
 2000978:	defffd04 	addi	sp,sp,-12
 200097c:	dfc00215 	stw	ra,8(sp)
 2000980:	df000115 	stw	fp,4(sp)
 2000984:	df000104 	addi	fp,sp,4
 2000988:	e13fff05 	stb	r4,-4(fp)
  if(return_code != OS_NO_ERR)
 200098c:	e0bfff03 	ldbu	r2,-4(fp)
 2000990:	1005003a 	cmpeq	r2,r2,zero
 2000994:	1000041e 	bne	r2,zero,20009a8 <alt_ucosii_check_return_code+0x30>
  {
    OSSchedLock();  /* Disable Task Switching but still service other IRQs */
 2000998:	20186e80 	call	20186e8 <OSSchedLock>
    alt_ucosii_simple_error_handler(return_code);
 200099c:	e13fff03 	ldbu	r4,-4(fp)
 20009a0:	20009bc0 	call	20009bc <alt_ucosii_simple_error_handler>
    OSSchedUnlock(); /* Enable Task Switching */
 20009a4:	20187740 	call	2018774 <OSSchedUnlock>
  }
}
 20009a8:	e037883a 	mov	sp,fp
 20009ac:	dfc00117 	ldw	ra,4(sp)
 20009b0:	df000017 	ldw	fp,0(sp)
 20009b4:	dec00204 	addi	sp,sp,8
 20009b8:	f800283a 	ret

020009bc <alt_ucosii_simple_error_handler>:
 * controls the flow that is taken from different errors occurring at different 
 * locations in the application code.
 */

void alt_ucosii_simple_error_handler(INT8U return_code)
{
 20009bc:	defffc04 	addi	sp,sp,-16
 20009c0:	dfc00315 	stw	ra,12(sp)
 20009c4:	df000215 	stw	fp,8(sp)
 20009c8:	df000204 	addi	fp,sp,8
 20009cc:	e13ffe05 	stb	r4,-8(fp)
  printf("[Program Error]: See STDERR\n");
 20009d0:	010080b4 	movhi	r4,514
 20009d4:	210dfc04 	addi	r4,r4,14320
 20009d8:	200ec540 	call	200ec54 <puts>
  switch (return_code) {
 20009dc:	e0bffe03 	ldbu	r2,-8(fp)
 20009e0:	e0bfff15 	stw	r2,-4(fp)
 20009e4:	e0ffff17 	ldw	r3,-4(fp)
 20009e8:	18801968 	cmpgeui	r2,r3,101
 20009ec:	10010a1e 	bne	r2,zero,2000e18 <alt_ucosii_simple_error_handler+0x45c>
 20009f0:	e13fff17 	ldw	r4,-4(fp)
 20009f4:	e13fff17 	ldw	r4,-4(fp)
 20009f8:	2105883a 	add	r2,r4,r4
 20009fc:	1087883a 	add	r3,r2,r2
 2000a00:	00808034 	movhi	r2,512
 2000a04:	10828504 	addi	r2,r2,2580
 2000a08:	1885883a 	add	r2,r3,r2
 2000a0c:	10800017 	ldw	r2,0(r2)
 2000a10:	1000683a 	jmp	r2
 2000a14:	02000e18 	cmpnei	r8,zero,56
 2000a18:	02000c88 	cmpgei	r8,zero,50
 2000a1c:	02000d28 	cmpgeui	r8,zero,52
 2000a20:	02000cd8 	cmpnei	r8,zero,51
 2000a24:	02000cb0 	cmpltui	r8,zero,50
 2000a28:	02000e18 	cmpnei	r8,zero,56
 2000a2c:	02000e18 	cmpnei	r8,zero,56
 2000a30:	02000e18 	cmpnei	r8,zero,56
 2000a34:	02000e18 	cmpnei	r8,zero,56
 2000a38:	02000e18 	cmpnei	r8,zero,56
 2000a3c:	02000d00 	call	2000d0 <OSCtxSw_SWITCH_PC+0x200090>
 2000a40:	02000e18 	cmpnei	r8,zero,56
 2000a44:	02000e18 	cmpnei	r8,zero,56
 2000a48:	02000e18 	cmpnei	r8,zero,56
 2000a4c:	02000e18 	cmpnei	r8,zero,56
 2000a50:	02000e18 	cmpnei	r8,zero,56
 2000a54:	02000e18 	cmpnei	r8,zero,56
 2000a58:	02000e18 	cmpnei	r8,zero,56
 2000a5c:	02000e18 	cmpnei	r8,zero,56
 2000a60:	02000e18 	cmpnei	r8,zero,56
 2000a64:	02000c60 	cmpeqi	r8,zero,49
 2000a68:	02000e18 	cmpnei	r8,zero,56
 2000a6c:	02000e18 	cmpnei	r8,zero,56
 2000a70:	02000e18 	cmpnei	r8,zero,56
 2000a74:	02000e18 	cmpnei	r8,zero,56
 2000a78:	02000e18 	cmpnei	r8,zero,56
 2000a7c:	02000e18 	cmpnei	r8,zero,56
 2000a80:	02000e18 	cmpnei	r8,zero,56
 2000a84:	02000e18 	cmpnei	r8,zero,56
 2000a88:	02000e18 	cmpnei	r8,zero,56
 2000a8c:	02000dc8 	cmpgei	r8,zero,55
 2000a90:	02000e18 	cmpnei	r8,zero,56
 2000a94:	02000e18 	cmpnei	r8,zero,56
 2000a98:	02000e18 	cmpnei	r8,zero,56
 2000a9c:	02000e18 	cmpnei	r8,zero,56
 2000aa0:	02000e18 	cmpnei	r8,zero,56
 2000aa4:	02000e18 	cmpnei	r8,zero,56
 2000aa8:	02000e18 	cmpnei	r8,zero,56
 2000aac:	02000e18 	cmpnei	r8,zero,56
 2000ab0:	02000e18 	cmpnei	r8,zero,56
 2000ab4:	02000ba8 	cmpgeui	r8,zero,46
 2000ab8:	02000e18 	cmpnei	r8,zero,56
 2000abc:	02000bd0 	cmplti	r8,zero,47
 2000ac0:	02000e18 	cmpnei	r8,zero,56
 2000ac4:	02000e18 	cmpnei	r8,zero,56
 2000ac8:	02000e18 	cmpnei	r8,zero,56
 2000acc:	02000e18 	cmpnei	r8,zero,56
 2000ad0:	02000e18 	cmpnei	r8,zero,56
 2000ad4:	02000e18 	cmpnei	r8,zero,56
 2000ad8:	02000e18 	cmpnei	r8,zero,56
 2000adc:	02000e18 	cmpnei	r8,zero,56
 2000ae0:	02000e18 	cmpnei	r8,zero,56
 2000ae4:	02000e18 	cmpnei	r8,zero,56
 2000ae8:	02000e18 	cmpnei	r8,zero,56
 2000aec:	02000e18 	cmpnei	r8,zero,56
 2000af0:	02000e18 	cmpnei	r8,zero,56
 2000af4:	02000e18 	cmpnei	r8,zero,56
 2000af8:	02000e18 	cmpnei	r8,zero,56
 2000afc:	02000e18 	cmpnei	r8,zero,56
 2000b00:	02000e18 	cmpnei	r8,zero,56
 2000b04:	02000e18 	cmpnei	r8,zero,56
 2000b08:	02000d78 	rdprs	r8,zero,53
 2000b0c:	02000d50 	cmplti	r8,zero,53
 2000b10:	02000e18 	cmpnei	r8,zero,56
 2000b14:	02000da0 	cmpeqi	r8,zero,54
 2000b18:	02000e18 	cmpnei	r8,zero,56
 2000b1c:	02000c18 	cmpnei	r8,zero,48
 2000b20:	02000e18 	cmpnei	r8,zero,56
 2000b24:	02000e18 	cmpnei	r8,zero,56
 2000b28:	02000e18 	cmpnei	r8,zero,56
 2000b2c:	02000e18 	cmpnei	r8,zero,56
 2000b30:	02000e18 	cmpnei	r8,zero,56
 2000b34:	02000e18 	cmpnei	r8,zero,56
 2000b38:	02000e18 	cmpnei	r8,zero,56
 2000b3c:	02000e18 	cmpnei	r8,zero,56
 2000b40:	02000e18 	cmpnei	r8,zero,56
 2000b44:	02000e18 	cmpnei	r8,zero,56
 2000b48:	02000e18 	cmpnei	r8,zero,56
 2000b4c:	02000e18 	cmpnei	r8,zero,56
 2000b50:	02000e18 	cmpnei	r8,zero,56
 2000b54:	02000e18 	cmpnei	r8,zero,56
 2000b58:	02000e18 	cmpnei	r8,zero,56
 2000b5c:	02000e18 	cmpnei	r8,zero,56
 2000b60:	02000e18 	cmpnei	r8,zero,56
 2000b64:	02000e18 	cmpnei	r8,zero,56
 2000b68:	02000e18 	cmpnei	r8,zero,56
 2000b6c:	02000e18 	cmpnei	r8,zero,56
 2000b70:	02000e18 	cmpnei	r8,zero,56
 2000b74:	02000e18 	cmpnei	r8,zero,56
 2000b78:	02000e18 	cmpnei	r8,zero,56
 2000b7c:	02000e18 	cmpnei	r8,zero,56
 2000b80:	02000e18 	cmpnei	r8,zero,56
 2000b84:	02000e18 	cmpnei	r8,zero,56
 2000b88:	02000e18 	cmpnei	r8,zero,56
 2000b8c:	02000e18 	cmpnei	r8,zero,56
 2000b90:	02000e18 	cmpnei	r8,zero,56
 2000b94:	02000e18 	cmpnei	r8,zero,56
 2000b98:	02000e18 	cmpnei	r8,zero,56
 2000b9c:	02000e18 	cmpnei	r8,zero,56
 2000ba0:	02000e18 	cmpnei	r8,zero,56
 2000ba4:	02000df0 	cmpltui	r8,zero,55
    case OS_PRIO_EXIST:
      fprintf(stderr, "Attempted to assign a task priority that is aready in use.\n");
 2000ba8:	008080b4 	movhi	r2,514
 2000bac:	109ba204 	addi	r2,r2,28296
 2000bb0:	10800017 	ldw	r2,0(r2)
 2000bb4:	11c00317 	ldw	r7,12(r2)
 2000bb8:	010080b4 	movhi	r4,514
 2000bbc:	210e0304 	addi	r4,r4,14348
 2000bc0:	01400044 	movi	r5,1
 2000bc4:	01800ec4 	movi	r6,59
 2000bc8:	200eb740 	call	200eb74 <fwrite>
      break;
 2000bcc:	00009b06 	br	2000e3c <alt_ucosii_simple_error_handler+0x480>
    case OS_PRIO_INVALID:
      fprintf(stderr, "Specified a task priority higher than the allowed maximum.\n");
 2000bd0:	008080b4 	movhi	r2,514
 2000bd4:	109ba204 	addi	r2,r2,28296
 2000bd8:	10800017 	ldw	r2,0(r2)
 2000bdc:	11c00317 	ldw	r7,12(r2)
 2000be0:	010080b4 	movhi	r4,514
 2000be4:	210e1204 	addi	r4,r4,14408
 2000be8:	01400044 	movi	r5,1
 2000bec:	01800ec4 	movi	r6,59
 2000bf0:	200eb740 	call	200eb74 <fwrite>
      fprintf(stderr, "Task can not be assigned a priority higher than %d\n",OS_LOWEST_PRIO);
 2000bf4:	008080b4 	movhi	r2,514
 2000bf8:	109ba204 	addi	r2,r2,28296
 2000bfc:	10800017 	ldw	r2,0(r2)
 2000c00:	11000317 	ldw	r4,12(r2)
 2000c04:	014080b4 	movhi	r5,514
 2000c08:	294e2104 	addi	r5,r5,14468
 2000c0c:	01800504 	movi	r6,20
 2000c10:	200ea780 	call	200ea78 <fprintf>
      break;
 2000c14:	00008906 	br	2000e3c <alt_ucosii_simple_error_handler+0x480>
    case OS_NO_MORE_TCB:
      fprintf(stderr, "Task Control Blocks have been exhausted\n");
 2000c18:	008080b4 	movhi	r2,514
 2000c1c:	109ba204 	addi	r2,r2,28296
 2000c20:	10800017 	ldw	r2,0(r2)
 2000c24:	11c00317 	ldw	r7,12(r2)
 2000c28:	010080b4 	movhi	r4,514
 2000c2c:	210e2e04 	addi	r4,r4,14520
 2000c30:	01400044 	movi	r5,1
 2000c34:	01800a04 	movi	r6,40
 2000c38:	200eb740 	call	200eb74 <fwrite>
      fprintf(stderr, "The current max number of task is %d\n",OS_MAX_TASKS);
 2000c3c:	008080b4 	movhi	r2,514
 2000c40:	109ba204 	addi	r2,r2,28296
 2000c44:	10800017 	ldw	r2,0(r2)
 2000c48:	11000317 	ldw	r4,12(r2)
 2000c4c:	014080b4 	movhi	r5,514
 2000c50:	294e3904 	addi	r5,r5,14564
 2000c54:	01800284 	movi	r6,10
 2000c58:	200ea780 	call	200ea78 <fprintf>
      break;
 2000c5c:	00007706 	br	2000e3c <alt_ucosii_simple_error_handler+0x480>
    case OS_MBOX_FULL:
      fprintf(stderr, "Attempted a Post to a Mailbox that already contains a message\n");
 2000c60:	008080b4 	movhi	r2,514
 2000c64:	109ba204 	addi	r2,r2,28296
 2000c68:	10800017 	ldw	r2,0(r2)
 2000c6c:	11c00317 	ldw	r7,12(r2)
 2000c70:	010080b4 	movhi	r4,514
 2000c74:	210e4304 	addi	r4,r4,14604
 2000c78:	01400044 	movi	r5,1
 2000c7c:	01800f84 	movi	r6,62
 2000c80:	200eb740 	call	200eb74 <fwrite>
      break;
 2000c84:	00006d06 	br	2000e3c <alt_ucosii_simple_error_handler+0x480>
    case OS_ERR_EVENT_TYPE:
      fprintf(stderr, "Attempted to access a resource that doesn't match the required data type\n");
 2000c88:	008080b4 	movhi	r2,514
 2000c8c:	109ba204 	addi	r2,r2,28296
 2000c90:	10800017 	ldw	r2,0(r2)
 2000c94:	11c00317 	ldw	r7,12(r2)
 2000c98:	010080b4 	movhi	r4,514
 2000c9c:	210e5304 	addi	r4,r4,14668
 2000ca0:	01400044 	movi	r5,1
 2000ca4:	01801244 	movi	r6,73
 2000ca8:	200eb740 	call	200eb74 <fwrite>
      break;
 2000cac:	00006306 	br	2000e3c <alt_ucosii_simple_error_handler+0x480>
    case OS_ERR_PEVENT_NULL:
      fprintf(stderr, "Attempting access a resource that is pointing to NULL\n");
 2000cb0:	008080b4 	movhi	r2,514
 2000cb4:	109ba204 	addi	r2,r2,28296
 2000cb8:	10800017 	ldw	r2,0(r2)
 2000cbc:	11c00317 	ldw	r7,12(r2)
 2000cc0:	010080b4 	movhi	r4,514
 2000cc4:	210e6604 	addi	r4,r4,14744
 2000cc8:	01400044 	movi	r5,1
 2000ccc:	01800d84 	movi	r6,54
 2000cd0:	200eb740 	call	200eb74 <fwrite>
      break;
 2000cd4:	00005906 	br	2000e3c <alt_ucosii_simple_error_handler+0x480>
    case OS_ERR_POST_NULL_PTR:
      fprintf(stderr, "Attempted to Post a NULL to a resource. \n");
 2000cd8:	008080b4 	movhi	r2,514
 2000cdc:	109ba204 	addi	r2,r2,28296
 2000ce0:	10800017 	ldw	r2,0(r2)
 2000ce4:	11c00317 	ldw	r7,12(r2)
 2000ce8:	010080b4 	movhi	r4,514
 2000cec:	210e7404 	addi	r4,r4,14800
 2000cf0:	01400044 	movi	r5,1
 2000cf4:	01800a44 	movi	r6,41
 2000cf8:	200eb740 	call	200eb74 <fwrite>
      break;
 2000cfc:	00004f06 	br	2000e3c <alt_ucosii_simple_error_handler+0x480>
    case OS_TIMEOUT:
      fprintf(stderr, "Resource not received in specified time\n");
 2000d00:	008080b4 	movhi	r2,514
 2000d04:	109ba204 	addi	r2,r2,28296
 2000d08:	10800017 	ldw	r2,0(r2)
 2000d0c:	11c00317 	ldw	r7,12(r2)
 2000d10:	010080b4 	movhi	r4,514
 2000d14:	210e7f04 	addi	r4,r4,14844
 2000d18:	01400044 	movi	r5,1
 2000d1c:	01800a04 	movi	r6,40
 2000d20:	200eb740 	call	200eb74 <fwrite>
      break;
 2000d24:	00004506 	br	2000e3c <alt_ucosii_simple_error_handler+0x480>
    case OS_ERR_PEND_ISR:
      fprintf(stderr, "Attempting to pending for a resource in an ISR\n");
 2000d28:	008080b4 	movhi	r2,514
 2000d2c:	109ba204 	addi	r2,r2,28296
 2000d30:	10800017 	ldw	r2,0(r2)
 2000d34:	11c00317 	ldw	r7,12(r2)
 2000d38:	010080b4 	movhi	r4,514
 2000d3c:	210e8a04 	addi	r4,r4,14888
 2000d40:	01400044 	movi	r5,1
 2000d44:	01800bc4 	movi	r6,47
 2000d48:	200eb740 	call	200eb74 <fwrite>
      break;
 2000d4c:	00003b06 	br	2000e3c <alt_ucosii_simple_error_handler+0x480>
    case OS_TASK_DEL_IDLE:
      fprintf(stderr, "Attempted to delete the IDLE task\n");
 2000d50:	008080b4 	movhi	r2,514
 2000d54:	109ba204 	addi	r2,r2,28296
 2000d58:	10800017 	ldw	r2,0(r2)
 2000d5c:	11c00317 	ldw	r7,12(r2)
 2000d60:	010080b4 	movhi	r4,514
 2000d64:	210e9604 	addi	r4,r4,14936
 2000d68:	01400044 	movi	r5,1
 2000d6c:	01800884 	movi	r6,34
 2000d70:	200eb740 	call	200eb74 <fwrite>
      break;
 2000d74:	00003106 	br	2000e3c <alt_ucosii_simple_error_handler+0x480>
    case OS_TASK_DEL_ERR:
      fprintf(stderr, "Attempted to delete a task that does not exist\n");
 2000d78:	008080b4 	movhi	r2,514
 2000d7c:	109ba204 	addi	r2,r2,28296
 2000d80:	10800017 	ldw	r2,0(r2)
 2000d84:	11c00317 	ldw	r7,12(r2)
 2000d88:	010080b4 	movhi	r4,514
 2000d8c:	210e9f04 	addi	r4,r4,14972
 2000d90:	01400044 	movi	r5,1
 2000d94:	01800bc4 	movi	r6,47
 2000d98:	200eb740 	call	200eb74 <fwrite>
      break;
 2000d9c:	00002706 	br	2000e3c <alt_ucosii_simple_error_handler+0x480>
    case OS_TASK_DEL_ISR:
      fprintf(stderr, "Attempted to delete a task from an ISR\n");
 2000da0:	008080b4 	movhi	r2,514
 2000da4:	109ba204 	addi	r2,r2,28296
 2000da8:	10800017 	ldw	r2,0(r2)
 2000dac:	11c00317 	ldw	r7,12(r2)
 2000db0:	010080b4 	movhi	r4,514
 2000db4:	210eab04 	addi	r4,r4,15020
 2000db8:	01400044 	movi	r5,1
 2000dbc:	018009c4 	movi	r6,39
 2000dc0:	200eb740 	call	200eb74 <fwrite>
      break;
 2000dc4:	00001d06 	br	2000e3c <alt_ucosii_simple_error_handler+0x480>
    case OS_Q_FULL:
      fprintf(stderr, "Attempted to post to a full message queue\n");
 2000dc8:	008080b4 	movhi	r2,514
 2000dcc:	109ba204 	addi	r2,r2,28296
 2000dd0:	10800017 	ldw	r2,0(r2)
 2000dd4:	11c00317 	ldw	r7,12(r2)
 2000dd8:	010080b4 	movhi	r4,514
 2000ddc:	210eb504 	addi	r4,r4,15060
 2000de0:	01400044 	movi	r5,1
 2000de4:	01800a84 	movi	r6,42
 2000de8:	200eb740 	call	200eb74 <fwrite>
      break;
 2000dec:	00001306 	br	2000e3c <alt_ucosii_simple_error_handler+0x480>
    case OS_ERR_NOT_MUTEX_OWNER:
      fprintf(stderr, "Attempted to post a mutex that is not owned by the task\n");
 2000df0:	008080b4 	movhi	r2,514
 2000df4:	109ba204 	addi	r2,r2,28296
 2000df8:	10800017 	ldw	r2,0(r2)
 2000dfc:	11c00317 	ldw	r7,12(r2)
 2000e00:	010080b4 	movhi	r4,514
 2000e04:	210ec004 	addi	r4,r4,15104
 2000e08:	01400044 	movi	r5,1
 2000e0c:	01800e04 	movi	r6,56
 2000e10:	200eb740 	call	200eb74 <fwrite>
      break;
 2000e14:	00000906 	br	2000e3c <alt_ucosii_simple_error_handler+0x480>
    default:
      fprintf(stderr, "Unknown Error\n");
 2000e18:	008080b4 	movhi	r2,514
 2000e1c:	109ba204 	addi	r2,r2,28296
 2000e20:	10800017 	ldw	r2,0(r2)
 2000e24:	11c00317 	ldw	r7,12(r2)
 2000e28:	010080b4 	movhi	r4,514
 2000e2c:	210ecf04 	addi	r4,r4,15164
 2000e30:	01400044 	movi	r5,1
 2000e34:	01800384 	movi	r6,14
 2000e38:	200eb740 	call	200eb74 <fwrite>
      break;
  }
  fprintf(stderr, "Program is terminating.\n");
 2000e3c:	008080b4 	movhi	r2,514
 2000e40:	109ba204 	addi	r2,r2,28296
 2000e44:	10800017 	ldw	r2,0(r2)
 2000e48:	11c00317 	ldw	r7,12(r2)
 2000e4c:	010080b4 	movhi	r4,514
 2000e50:	210ed304 	addi	r4,r4,15180
 2000e54:	01400044 	movi	r5,1
 2000e58:	01800604 	movi	r6,24
 2000e5c:	200eb740 	call	200eb74 <fwrite>
  exit(0);
 2000e60:	0009883a 	mov	r4,zero
 2000e64:	200ea400 	call	200ea40 <exit>

02000e68 <sx>:
alt_u8 X0=0;
alt_u8 save_flag=0;
alt_u8 save_control=0;

__inline void sx(alt_u16 x)
{
 2000e68:	defffc04 	addi	sp,sp,-16
 2000e6c:	dfc00315 	stw	ra,12(sp)
 2000e70:	df000215 	stw	fp,8(sp)
 2000e74:	df000204 	addi	fp,sp,8
 2000e78:	e13fff0d 	sth	r4,-4(fp)
	alt_u8 i,temp;
	if(x>100) temp=x%100;
 2000e7c:	e0bfff0b 	ldhu	r2,-4(fp)
 2000e80:	10801970 	cmpltui	r2,r2,101
 2000e84:	1000071e 	bne	r2,zero,2000ea4 <sx+0x3c>
 2000e88:	e0ffff0b 	ldhu	r3,-4(fp)
 2000e8c:	00801904 	movi	r2,100
 2000e90:	1885203a 	divu	r2,r3,r2
 2000e94:	10801924 	muli	r2,r2,100
 2000e98:	1885c83a 	sub	r2,r3,r2
 2000e9c:	e0bffe05 	stb	r2,-8(fp)
 2000ea0:	00000206 	br	2000eac <sx+0x44>
	else temp=x;
 2000ea4:	e0bfff0b 	ldhu	r2,-4(fp)
 2000ea8:	e0bffe05 	stb	r2,-8(fp)
	if(x==159 || x==161 || temp==10  || temp==35  || temp==60  || temp==85 )
 2000eac:	e0bfff0b 	ldhu	r2,-4(fp)
 2000eb0:	108027e0 	cmpeqi	r2,r2,159
 2000eb4:	10000f1e 	bne	r2,zero,2000ef4 <sx+0x8c>
 2000eb8:	e0bfff0b 	ldhu	r2,-4(fp)
 2000ebc:	10802860 	cmpeqi	r2,r2,161
 2000ec0:	10000c1e 	bne	r2,zero,2000ef4 <sx+0x8c>
 2000ec4:	e0bffe03 	ldbu	r2,-8(fp)
 2000ec8:	108002a0 	cmpeqi	r2,r2,10
 2000ecc:	1000091e 	bne	r2,zero,2000ef4 <sx+0x8c>
 2000ed0:	e0bffe03 	ldbu	r2,-8(fp)
 2000ed4:	108008e0 	cmpeqi	r2,r2,35
 2000ed8:	1000061e 	bne	r2,zero,2000ef4 <sx+0x8c>
 2000edc:	e0bffe03 	ldbu	r2,-8(fp)
 2000ee0:	10800f20 	cmpeqi	r2,r2,60
 2000ee4:	1000031e 	bne	r2,zero,2000ef4 <sx+0x8c>
 2000ee8:	e0bffe03 	ldbu	r2,-8(fp)
 2000eec:	10801558 	cmpnei	r2,r2,85
 2000ef0:	1000231e 	bne	r2,zero,2000f80 <sx+0x118>
	{
		for (i=20; i <=220; i++)
 2000ef4:	00800504 	movi	r2,20
 2000ef8:	e0bffe45 	stb	r2,-7(fp)
 2000efc:	00001406 	br	2000f50 <sx+0xe8>
		{
			if(i%5==0) 	ili9320_SetPoint(x ,i, WHITE);
 2000f00:	e0fffe43 	ldbu	r3,-7(fp)
 2000f04:	00800144 	movi	r2,5
 2000f08:	1885203a 	divu	r2,r3,r2
 2000f0c:	10800164 	muli	r2,r2,5
 2000f10:	1885c83a 	sub	r2,r3,r2
 2000f14:	10803fcc 	andi	r2,r2,255
 2000f18:	1004c03a 	cmpne	r2,r2,zero
 2000f1c:	1000051e 	bne	r2,zero,2000f34 <sx+0xcc>
 2000f20:	e13fff0b 	ldhu	r4,-4(fp)
 2000f24:	e17ffe43 	ldbu	r5,-7(fp)
 2000f28:	01bfffd4 	movui	r6,65535
 2000f2c:	20051880 	call	2005188 <ili9320_SetPoint>
 2000f30:	00000406 	br	2000f44 <sx+0xdc>
				else 	ili9320_SetPoint(x ,i, BLACK);
 2000f34:	e13fff0b 	ldhu	r4,-4(fp)
 2000f38:	e17ffe43 	ldbu	r5,-7(fp)
 2000f3c:	000d883a 	mov	r6,zero
 2000f40:	20051880 	call	2005188 <ili9320_SetPoint>
	alt_u8 i,temp;
	if(x>100) temp=x%100;
	else temp=x;
	if(x==159 || x==161 || temp==10  || temp==35  || temp==60  || temp==85 )
	{
		for (i=20; i <=220; i++)
 2000f44:	e0bffe43 	ldbu	r2,-7(fp)
 2000f48:	10800044 	addi	r2,r2,1
 2000f4c:	e0bffe45 	stb	r2,-7(fp)
 2000f50:	e0bffe43 	ldbu	r2,-7(fp)
 2000f54:	10803770 	cmpltui	r2,r2,221
 2000f58:	103fe91e 	bne	r2,zero,2000f00 <sx+0x98>
		{
			if(i%5==0) 	ili9320_SetPoint(x ,i, WHITE);
				else 	ili9320_SetPoint(x ,i, BLACK);
		}
		ili9320_SetPoint(x ,119, WHITE);
 2000f5c:	e13fff0b 	ldhu	r4,-4(fp)
 2000f60:	01401dc4 	movi	r5,119
 2000f64:	01bfffd4 	movui	r6,65535
 2000f68:	20051880 	call	2005188 <ili9320_SetPoint>
		ili9320_SetPoint(x ,121, WHITE);
 2000f6c:	e13fff0b 	ldhu	r4,-4(fp)
 2000f70:	01401e44 	movi	r5,121
 2000f74:	01bfffd4 	movui	r6,65535
 2000f78:	20051880 	call	2005188 <ili9320_SetPoint>
__inline void sx(alt_u16 x)
{
	alt_u8 i,temp;
	if(x>100) temp=x%100;
	else temp=x;
	if(x==159 || x==161 || temp==10  || temp==35  || temp==60  || temp==85 )
 2000f7c:	00004806 	br	20010a0 <sx+0x238>
		ili9320_SetPoint(x ,121, WHITE);
		//break;
	}
	else
	{
		if(x%5==0)
 2000f80:	e0ffff0b 	ldhu	r3,-4(fp)
 2000f84:	00800144 	movi	r2,5
 2000f88:	1885203a 	divu	r2,r3,r2
 2000f8c:	10800164 	muli	r2,r2,5
 2000f90:	1885c83a 	sub	r2,r3,r2
 2000f94:	10bfffcc 	andi	r2,r2,65535
 2000f98:	1004c03a 	cmpne	r2,r2,zero
 2000f9c:	1000331e 	bne	r2,zero,200106c <sx+0x204>
		{
			for (i = 20; i <=220; i++)
 2000fa0:	00800504 	movi	r2,20
 2000fa4:	e0bffe45 	stb	r2,-7(fp)
 2000fa8:	00002406 	br	200103c <sx+0x1d4>
			{
				if(i>100) temp=i%100;
 2000fac:	e0bffe43 	ldbu	r2,-7(fp)
 2000fb0:	10801970 	cmpltui	r2,r2,101
 2000fb4:	1000071e 	bne	r2,zero,2000fd4 <sx+0x16c>
 2000fb8:	e0fffe43 	ldbu	r3,-7(fp)
 2000fbc:	00801904 	movi	r2,100
 2000fc0:	1885203a 	divu	r2,r3,r2
 2000fc4:	10801924 	muli	r2,r2,100
 2000fc8:	1885c83a 	sub	r2,r3,r2
 2000fcc:	e0bffe05 	stb	r2,-8(fp)
 2000fd0:	00000206 	br	2000fdc <sx+0x174>
				else temp=i;
 2000fd4:	e0bffe43 	ldbu	r2,-7(fp)
 2000fd8:	e0bffe05 	stb	r2,-8(fp)
				if(temp==20  || temp==45  || temp==70  || temp==95)
 2000fdc:	e0bffe03 	ldbu	r2,-8(fp)
 2000fe0:	10800520 	cmpeqi	r2,r2,20
 2000fe4:	1000091e 	bne	r2,zero,200100c <sx+0x1a4>
 2000fe8:	e0bffe03 	ldbu	r2,-8(fp)
 2000fec:	10800b60 	cmpeqi	r2,r2,45
 2000ff0:	1000061e 	bne	r2,zero,200100c <sx+0x1a4>
 2000ff4:	e0bffe03 	ldbu	r2,-8(fp)
 2000ff8:	108011a0 	cmpeqi	r2,r2,70
 2000ffc:	1000031e 	bne	r2,zero,200100c <sx+0x1a4>
 2001000:	e0bffe03 	ldbu	r2,-8(fp)
 2001004:	108017d8 	cmpnei	r2,r2,95
 2001008:	1000051e 	bne	r2,zero,2001020 <sx+0x1b8>
					ili9320_SetPoint(x ,i, WHITE);
 200100c:	e13fff0b 	ldhu	r4,-4(fp)
 2001010:	e17ffe43 	ldbu	r5,-7(fp)
 2001014:	01bfffd4 	movui	r6,65535
 2001018:	20051880 	call	2005188 <ili9320_SetPoint>
		{
			for (i = 20; i <=220; i++)
			{
				if(i>100) temp=i%100;
				else temp=i;
				if(temp==20  || temp==45  || temp==70  || temp==95)
 200101c:	00000406 	br	2001030 <sx+0x1c8>
					ili9320_SetPoint(x ,i, WHITE);
				else 	ili9320_SetPoint(x ,i, BLACK);
 2001020:	e13fff0b 	ldhu	r4,-4(fp)
 2001024:	e17ffe43 	ldbu	r5,-7(fp)
 2001028:	000d883a 	mov	r6,zero
 200102c:	20051880 	call	2005188 <ili9320_SetPoint>
	}
	else
	{
		if(x%5==0)
		{
			for (i = 20; i <=220; i++)
 2001030:	e0bffe43 	ldbu	r2,-7(fp)
 2001034:	10800044 	addi	r2,r2,1
 2001038:	e0bffe45 	stb	r2,-7(fp)
 200103c:	e0bffe43 	ldbu	r2,-7(fp)
 2001040:	10803770 	cmpltui	r2,r2,221
 2001044:	103fd91e 	bne	r2,zero,2000fac <sx+0x144>
				if(temp==20  || temp==45  || temp==70  || temp==95)
					ili9320_SetPoint(x ,i, WHITE);
				else 	ili9320_SetPoint(x ,i, BLACK);
			}

			ili9320_SetPoint(x ,119, WHITE);
 2001048:	e13fff0b 	ldhu	r4,-4(fp)
 200104c:	01401dc4 	movi	r5,119
 2001050:	01bfffd4 	movui	r6,65535
 2001054:	20051880 	call	2005188 <ili9320_SetPoint>
			ili9320_SetPoint(x ,121, WHITE);
 2001058:	e13fff0b 	ldhu	r4,-4(fp)
 200105c:	01401e44 	movi	r5,121
 2001060:	01bfffd4 	movui	r6,65535
 2001064:	20051880 	call	2005188 <ili9320_SetPoint>
 2001068:	00000d06 	br	20010a0 <sx+0x238>
		}
		else
		{
			for (i=20; i <= 220; i++)
 200106c:	00800504 	movi	r2,20
 2001070:	e0bffe45 	stb	r2,-7(fp)
 2001074:	00000706 	br	2001094 <sx+0x22c>
			{
				ili9320_SetPoint(x ,i, BLACK);
 2001078:	e13fff0b 	ldhu	r4,-4(fp)
 200107c:	e17ffe43 	ldbu	r5,-7(fp)
 2001080:	000d883a 	mov	r6,zero
 2001084:	20051880 	call	2005188 <ili9320_SetPoint>
			ili9320_SetPoint(x ,119, WHITE);
			ili9320_SetPoint(x ,121, WHITE);
		}
		else
		{
			for (i=20; i <= 220; i++)
 2001088:	e0bffe43 	ldbu	r2,-7(fp)
 200108c:	10800044 	addi	r2,r2,1
 2001090:	e0bffe45 	stb	r2,-7(fp)
 2001094:	e0bffe43 	ldbu	r2,-7(fp)
 2001098:	10803770 	cmpltui	r2,r2,221
 200109c:	103ff61e 	bne	r2,zero,2001078 <sx+0x210>
				ili9320_SetPoint(x ,i, BLACK);
			}
		}

	}
}
 20010a0:	e037883a 	mov	sp,fp
 20010a4:	dfc00117 	ldw	ra,4(sp)
 20010a8:	df000017 	ldw	fp,0(sp)
 20010ac:	dec00204 	addi	sp,sp,8
 20010b0:	f800283a 	ret

020010b4 <Save_data>:
void Save_data(void)
{
 20010b4:	defffd04 	addi	sp,sp,-12
 20010b8:	dfc00215 	stw	ra,8(sp)
 20010bc:	df000115 	stw	fp,4(sp)
 20010c0:	df000104 	addi	fp,sp,4
	alt_u16 x;
	for(x=0;x<=511;x++)
 20010c4:	e03fff0d 	sth	zero,-4(fp)
 20010c8:	00000e06 	br	2001104 <Save_data+0x50>
	{
		data_in[x]=Read_RAM(x);
 20010cc:	e13fff0b 	ldhu	r4,-4(fp)
 20010d0:	e0bfff0b 	ldhu	r2,-4(fp)
 20010d4:	1085883a 	add	r2,r2,r2
 20010d8:	1085883a 	add	r2,r2,r2
 20010dc:	10840004 	addi	r2,r2,4096
 20010e0:	10800037 	ldwio	r2,0(r2)
 20010e4:	1007883a 	mov	r3,r2
 20010e8:	008080f4 	movhi	r2,515
 20010ec:	10a10d04 	addi	r2,r2,-31692
 20010f0:	1105883a 	add	r2,r2,r4
 20010f4:	10c00005 	stb	r3,0(r2)
	}
}
void Save_data(void)
{
	alt_u16 x;
	for(x=0;x<=511;x++)
 20010f8:	e0bfff0b 	ldhu	r2,-4(fp)
 20010fc:	10800044 	addi	r2,r2,1
 2001100:	e0bfff0d 	sth	r2,-4(fp)
 2001104:	e0bfff0b 	ldhu	r2,-4(fp)
 2001108:	10808030 	cmpltui	r2,r2,512
 200110c:	103fef1e 	bne	r2,zero,20010cc <Save_data+0x18>
	{
		data_in[x]=Read_RAM(x);
	}
	data_in[513]=TRIG_DATA;
 2001110:	008080b4 	movhi	r2,514
 2001114:	109ba044 	addi	r2,r2,28289
 2001118:	10c00003 	ldbu	r3,0(r2)
 200111c:	008080f4 	movhi	r2,515
 2001120:	10a10d04 	addi	r2,r2,-31692
 2001124:	10c08045 	stb	r3,513(r2)
	data_in[514]=LCKDIV;
 2001128:	008080b4 	movhi	r2,514
 200112c:	109bd704 	addi	r2,r2,28508
 2001130:	10c00003 	ldbu	r3,0(r2)
 2001134:	008080f4 	movhi	r2,515
 2001138:	10a10d04 	addi	r2,r2,-31692
 200113c:	10c08085 	stb	r3,514(r2)
	data_in[515]=VDIV;
 2001140:	008080b4 	movhi	r2,514
 2001144:	109ba004 	addi	r2,r2,28288
 2001148:	10c00003 	ldbu	r3,0(r2)
 200114c:	008080f4 	movhi	r2,515
 2001150:	10a10d04 	addi	r2,r2,-31692
 2001154:	10c080c5 	stb	r3,515(r2)
	data_in[516]=Y0;
 2001158:	d0e00003 	ldbu	r3,-32768(gp)
 200115c:	008080f4 	movhi	r2,515
 2001160:	10a10d04 	addi	r2,r2,-31692
 2001164:	10c08105 	stb	r3,516(r2)
	data_in[517]=X0;
 2001168:	d0e03603 	ldbu	r3,-32552(gp)
 200116c:	008080f4 	movhi	r2,515
 2001170:	10a10d04 	addi	r2,r2,-31692
 2001174:	10c08145 	stb	r3,517(r2)
	data_in[518]=0;
 2001178:	008080f4 	movhi	r2,515
 200117c:	10a10d04 	addi	r2,r2,-31692
 2001180:	10008185 	stb	zero,518(r2)
	Flash_WriteData();
 2001184:	20047280 	call	2004728 <Flash_WriteData>

}
 2001188:	e037883a 	mov	sp,fp
 200118c:	dfc00117 	ldw	ra,4(sp)
 2001190:	df000017 	ldw	fp,0(sp)
 2001194:	dec00204 	addi	sp,sp,8
 2001198:	f800283a 	ret

0200119c <Play_data>:
void Play_data(void)
{
 200119c:	defffa04 	addi	sp,sp,-24
 20011a0:	dfc00515 	stw	ra,20(sp)
 20011a4:	df000415 	stw	fp,16(sp)
 20011a8:	df000404 	addi	fp,sp,16
	ili9320_ShowString(2,Y0-5,12,12,12," ",GRAY-20,BLUE);
 20011ac:	d0a00003 	ldbu	r2,-32768(gp)
 20011b0:	10803fcc 	andi	r2,r2,255
 20011b4:	10bffec4 	addi	r2,r2,-5
 20011b8:	117fffcc 	andi	r5,r2,65535
 20011bc:	00c080b4 	movhi	r3,514
 20011c0:	18ceda04 	addi	r3,r3,15208
 20011c4:	00800304 	movi	r2,12
 20011c8:	d8800015 	stw	r2,0(sp)
 20011cc:	d8c00115 	stw	r3,4(sp)
 20011d0:	00a10714 	movui	r2,33820
 20011d4:	d8800215 	stw	r2,8(sp)
 20011d8:	008007c4 	movi	r2,31
 20011dc:	d8800315 	stw	r2,12(sp)
 20011e0:	01000084 	movi	r4,2
 20011e4:	01800304 	movi	r6,12
 20011e8:	01c00304 	movi	r7,12
 20011ec:	200614c0 	call	200614c <ili9320_ShowString>
	Flash_ReadData();
 20011f0:	20046040 	call	2004604 <Flash_ReadData>
	TRIG_DATA=data_in[513];
 20011f4:	008080f4 	movhi	r2,515
 20011f8:	10a10d04 	addi	r2,r2,-31692
 20011fc:	10c08043 	ldbu	r3,513(r2)
 2001200:	008080b4 	movhi	r2,514
 2001204:	109ba044 	addi	r2,r2,28289
 2001208:	10c00005 	stb	r3,0(r2)
	LCKDIV=data_in[514];
 200120c:	008080f4 	movhi	r2,515
 2001210:	10a10d04 	addi	r2,r2,-31692
 2001214:	10c08083 	ldbu	r3,514(r2)
 2001218:	008080b4 	movhi	r2,514
 200121c:	109bd704 	addi	r2,r2,28508
 2001220:	10c00005 	stb	r3,0(r2)
	VDIV=data_in[515];
 2001224:	008080f4 	movhi	r2,515
 2001228:	10a10d04 	addi	r2,r2,-31692
 200122c:	10c080c3 	ldbu	r3,515(r2)
 2001230:	008080b4 	movhi	r2,514
 2001234:	109ba004 	addi	r2,r2,28288
 2001238:	10c00005 	stb	r3,0(r2)
	Y0=data_in[516];
 200123c:	008080f4 	movhi	r2,515
 2001240:	10a10d04 	addi	r2,r2,-31692
 2001244:	10808103 	ldbu	r2,516(r2)
 2001248:	d0a00005 	stb	r2,-32768(gp)
	X0=data_in[517];
 200124c:	008080f4 	movhi	r2,515
 2001250:	10a10d04 	addi	r2,r2,-31692
 2001254:	10808143 	ldbu	r2,517(r2)
 2001258:	d0a03605 	stb	r2,-32552(gp)
	save_flag=data_in[518];
 200125c:	008080f4 	movhi	r2,515
 2001260:	10a10d04 	addi	r2,r2,-31692
 2001264:	10808183 	ldbu	r2,518(r2)
 2001268:	d0a03645 	stb	r2,-32551(gp)
	if(save_flag==0xff)
 200126c:	d0a03643 	ldbu	r2,-32551(gp)
 2001270:	10803fcc 	andi	r2,r2,255
 2001274:	10803fd8 	cmpnei	r2,r2,255
 2001278:	10000e1e 	bne	r2,zero,20012b4 <Play_data+0x118>
	{
		TRIG_DATA=127;
 200127c:	00c080b4 	movhi	r3,514
 2001280:	18dba044 	addi	r3,r3,28289
 2001284:	00801fc4 	movi	r2,127
 2001288:	18800005 	stb	r2,0(r3)
		LCKDIV=0;
 200128c:	008080b4 	movhi	r2,514
 2001290:	109bd704 	addi	r2,r2,28508
 2001294:	10000005 	stb	zero,0(r2)
		VDIV=8;
 2001298:	00c080b4 	movhi	r3,514
 200129c:	18dba004 	addi	r3,r3,28288
 20012a0:	00800204 	movi	r2,8
 20012a4:	18800005 	stb	r2,0(r3)
		Y0=120;
 20012a8:	00801e04 	movi	r2,120
 20012ac:	d0a00005 	stb	r2,-32768(gp)
		X0=0;
 20012b0:	d0203605 	stb	zero,-32552(gp)
	}
	WrVDiv(VDIV);
 20012b4:	008080b4 	movhi	r2,514
 20012b8:	109ba004 	addi	r2,r2,28288
 20012bc:	10800003 	ldbu	r2,0(r2)
 20012c0:	11003fcc 	andi	r4,r2,255
 20012c4:	200393c0 	call	200393c <WrVDiv>
	WrClkDiv(LCKDIV);
 20012c8:	008080b4 	movhi	r2,514
 20012cc:	109bd704 	addi	r2,r2,28508
 20012d0:	10800003 	ldbu	r2,0(r2)
 20012d4:	11003fcc 	andi	r4,r2,255
 20012d8:	20034a40 	call	20034a4 <WrClkDiv>
	ili9320_ShowNum(300,225,X0,3,12,WHITE,BLACK);
 20012dc:	d0a03603 	ldbu	r2,-32552(gp)
 20012e0:	11803fcc 	andi	r6,r2,255
 20012e4:	00800304 	movi	r2,12
 20012e8:	d8800015 	stw	r2,0(sp)
 20012ec:	00bfffd4 	movui	r2,65535
 20012f0:	d8800115 	stw	r2,4(sp)
 20012f4:	d8000215 	stw	zero,8(sp)
 20012f8:	01004b04 	movi	r4,300
 20012fc:	01403844 	movi	r5,225
 2001300:	01c000c4 	movi	r7,3
 2001304:	2005db80 	call	2005db8 <ili9320_ShowNum>
	IOWR_ALTERA_AVALON_PIO_DATA(TRIG_D_BASE,TRIG_DATA);
 2001308:	008080b4 	movhi	r2,514
 200130c:	109ba044 	addi	r2,r2,28289
 2001310:	10800003 	ldbu	r2,0(r2)
 2001314:	10c03fcc 	andi	r3,r2,255
 2001318:	00891c04 	movi	r2,9328
 200131c:	10c00035 	stwio	r3,0(r2)
	ili9320_ShowNum(300,5,TRIG_DATA,3,12,WHITE,BLACK);
 2001320:	008080b4 	movhi	r2,514
 2001324:	109ba044 	addi	r2,r2,28289
 2001328:	10800003 	ldbu	r2,0(r2)
 200132c:	11803fcc 	andi	r6,r2,255
 2001330:	00800304 	movi	r2,12
 2001334:	d8800015 	stw	r2,0(sp)
 2001338:	00bfffd4 	movui	r2,65535
 200133c:	d8800115 	stw	r2,4(sp)
 2001340:	d8000215 	stw	zero,8(sp)
 2001344:	01004b04 	movi	r4,300
 2001348:	01400144 	movi	r5,5
 200134c:	01c000c4 	movi	r7,3
 2001350:	2005db80 	call	2005db8 <ili9320_ShowNum>
	ili9320_ShowString(2,Y0-5,12,12,12,">",BLACK,YELLOW);
 2001354:	d0a00003 	ldbu	r2,-32768(gp)
 2001358:	10803fcc 	andi	r2,r2,255
 200135c:	10bffec4 	addi	r2,r2,-5
 2001360:	117fffcc 	andi	r5,r2,65535
 2001364:	00c080b4 	movhi	r3,514
 2001368:	18cedb04 	addi	r3,r3,15212
 200136c:	00800304 	movi	r2,12
 2001370:	d8800015 	stw	r2,0(sp)
 2001374:	d8c00115 	stw	r3,4(sp)
 2001378:	d8000215 	stw	zero,8(sp)
 200137c:	00bff814 	movui	r2,65504
 2001380:	d8800315 	stw	r2,12(sp)
 2001384:	01000084 	movi	r4,2
 2001388:	01800304 	movi	r6,12
 200138c:	01c00304 	movi	r7,12
 2001390:	200614c0 	call	200614c <ili9320_ShowString>
}
 2001394:	e037883a 	mov	sp,fp
 2001398:	dfc00117 	ldw	ra,4(sp)
 200139c:	df000017 	ldw	fp,0(sp)
 20013a0:	dec00204 	addi	sp,sp,8
 20013a4:	f800283a 	ret

020013a8 <Vpp_printf>:

void Vpp_printf(void)
{
 20013a8:	deffed04 	addi	sp,sp,-76
 20013ac:	dfc01215 	stw	ra,72(sp)
 20013b0:	df001115 	stw	fp,68(sp)
 20013b4:	df001104 	addi	fp,sp,68
	double x;
	char BUF2[7];
	x=5000*Vpp;//y=(2/255)*n+1.5;
 20013b8:	d0a0370b 	ldhu	r2,-32548(gp)
 20013bc:	10bfffcc 	andi	r2,r2,65535
 20013c0:	1104e224 	muli	r4,r2,5000
 20013c4:	200dbac0 	call	200dbac <__floatsidf>
 20013c8:	1009883a 	mov	r4,r2
 20013cc:	180b883a 	mov	r5,r3
 20013d0:	e13ff315 	stw	r4,-52(fp)
 20013d4:	e17ff415 	stw	r5,-48(fp)
	switch(VDIV)
 20013d8:	008080b4 	movhi	r2,514
 20013dc:	109ba004 	addi	r2,r2,28288
 20013e0:	10800003 	ldbu	r2,0(r2)
 20013e4:	10803fcc 	andi	r2,r2,255
 20013e8:	e0bfff15 	stw	r2,-4(fp)
 20013ec:	e0ffff17 	ldw	r3,-4(fp)
 20013f0:	188002a8 	cmpgeui	r2,r3,10
 20013f4:	1000e81e 	bne	r2,zero,2001798 <Vpp_printf+0x3f0>
 20013f8:	e13fff17 	ldw	r4,-4(fp)
 20013fc:	e13fff17 	ldw	r4,-4(fp)
 2001400:	2105883a 	add	r2,r4,r4
 2001404:	1087883a 	add	r3,r2,r2
 2001408:	00808034 	movhi	r2,512
 200140c:	10850704 	addi	r2,r2,5148
 2001410:	1885883a 	add	r2,r3,r2
 2001414:	10800017 	ldw	r2,0(r2)
 2001418:	1000683a 	jmp	r2
 200141c:	02001444 	movi	r8,81
 2001420:	0200149c 	xori	r8,zero,82
 2001424:	020014f4 	movhi	r8,83
 2001428:	0200154c 	andi	r8,zero,85
 200142c:	020015a4 	muli	r8,zero,86
 2001430:	020015fc 	xorhi	r8,zero,87
 2001434:	02001654 	movui	r8,89
 2001438:	020016ac 	andhi	r8,zero,90
 200143c:	020016fc 	xorhi	r8,zero,91
 2001440:	0200174c 	andi	r8,zero,93
		{
			case 0:{
				//125  2.00mV/div  FF--16mV
				x=(x*0.016)/255.0f;
 2001444:	e13ff317 	ldw	r4,-52(fp)
 2001448:	e17ff417 	ldw	r5,-48(fp)
 200144c:	01b4bcb4 	movhi	r6,54002
 2001450:	31aa7f04 	addi	r6,r6,-22020
 2001454:	01cfe434 	movhi	r7,16272
 2001458:	39d89344 	addi	r7,r7,25165
 200145c:	200d2600 	call	200d260 <__muldf3>
 2001460:	1009883a 	mov	r4,r2
 2001464:	180b883a 	mov	r5,r3
 2001468:	2005883a 	mov	r2,r4
 200146c:	2807883a 	mov	r3,r5
 2001470:	1009883a 	mov	r4,r2
 2001474:	180b883a 	mov	r5,r3
 2001478:	000d883a 	mov	r6,zero
 200147c:	01d01c34 	movhi	r7,16496
 2001480:	39f80004 	addi	r7,r7,-8192
 2001484:	200d6240 	call	200d624 <__divdf3>
 2001488:	1009883a 	mov	r4,r2
 200148c:	180b883a 	mov	r5,r3
 2001490:	e13ff315 	stw	r4,-52(fp)
 2001494:	e17ff415 	stw	r5,-48(fp)
			}break;
 2001498:	0000bf06 	br	2001798 <Vpp_printf+0x3f0>
			case 1:{
				//50  5mV/div   FF--40mV
				x=(x*0.04)/255.0f;
 200149c:	e13ff317 	ldw	r4,-52(fp)
 20014a0:	e17ff417 	ldw	r5,-48(fp)
 20014a4:	0191ebb4 	movhi	r6,18350
 20014a8:	31851ec4 	addi	r6,r6,5243
 20014ac:	01cfe934 	movhi	r7,16292
 20014b0:	39deb844 	addi	r7,r7,31457
 20014b4:	200d2600 	call	200d260 <__muldf3>
 20014b8:	1009883a 	mov	r4,r2
 20014bc:	180b883a 	mov	r5,r3
 20014c0:	2005883a 	mov	r2,r4
 20014c4:	2807883a 	mov	r3,r5
 20014c8:	1009883a 	mov	r4,r2
 20014cc:	180b883a 	mov	r5,r3
 20014d0:	000d883a 	mov	r6,zero
 20014d4:	01d01c34 	movhi	r7,16496
 20014d8:	39f80004 	addi	r7,r7,-8192
 20014dc:	200d6240 	call	200d624 <__divdf3>
 20014e0:	1009883a 	mov	r4,r2
 20014e4:	180b883a 	mov	r5,r3
 20014e8:	e13ff315 	stw	r4,-52(fp)
 20014ec:	e17ff415 	stw	r5,-48(fp)
			}break;
 20014f0:	0000a906 	br	2001798 <Vpp_printf+0x3f0>
			case 2:{
				//25 10mV/div   FF--80mV
				x=(x*0.08)/255.0f;
 20014f4:	e13ff317 	ldw	r4,-52(fp)
 20014f8:	e17ff417 	ldw	r5,-48(fp)
 20014fc:	0191ebb4 	movhi	r6,18350
 2001500:	31851ec4 	addi	r6,r6,5243
 2001504:	01cfed34 	movhi	r7,16308
 2001508:	39deb844 	addi	r7,r7,31457
 200150c:	200d2600 	call	200d260 <__muldf3>
 2001510:	1009883a 	mov	r4,r2
 2001514:	180b883a 	mov	r5,r3
 2001518:	2005883a 	mov	r2,r4
 200151c:	2807883a 	mov	r3,r5
 2001520:	1009883a 	mov	r4,r2
 2001524:	180b883a 	mov	r5,r3
 2001528:	000d883a 	mov	r6,zero
 200152c:	01d01c34 	movhi	r7,16496
 2001530:	39f80004 	addi	r7,r7,-8192
 2001534:	200d6240 	call	200d624 <__divdf3>
 2001538:	1009883a 	mov	r4,r2
 200153c:	180b883a 	mov	r5,r3
 2001540:	e13ff315 	stw	r4,-52(fp)
 2001544:	e17ff415 	stw	r5,-48(fp)
			}break;
 2001548:	00009306 	br	2001798 <Vpp_printf+0x3f0>
			case 3:{
				//12.5  20mV/div   FF--160mV
				x=(x*0.16)/255.0f;
 200154c:	e13ff317 	ldw	r4,-52(fp)
 2001550:	e17ff417 	ldw	r5,-48(fp)
 2001554:	0191ebb4 	movhi	r6,18350
 2001558:	31851ec4 	addi	r6,r6,5243
 200155c:	01cff134 	movhi	r7,16324
 2001560:	39deb844 	addi	r7,r7,31457
 2001564:	200d2600 	call	200d260 <__muldf3>
 2001568:	1009883a 	mov	r4,r2
 200156c:	180b883a 	mov	r5,r3
 2001570:	2005883a 	mov	r2,r4
 2001574:	2807883a 	mov	r3,r5
 2001578:	1009883a 	mov	r4,r2
 200157c:	180b883a 	mov	r5,r3
 2001580:	000d883a 	mov	r6,zero
 2001584:	01d01c34 	movhi	r7,16496
 2001588:	39f80004 	addi	r7,r7,-8192
 200158c:	200d6240 	call	200d624 <__divdf3>
 2001590:	1009883a 	mov	r4,r2
 2001594:	180b883a 	mov	r5,r3
 2001598:	e13ff315 	stw	r4,-52(fp)
 200159c:	e17ff415 	stw	r5,-48(fp)
			}break;
 20015a0:	00007d06 	br	2001798 <Vpp_printf+0x3f0>
			case 4:{
				//5  50mV/div  FF--400mV
				x=(x*0.4)/255.0f;
 20015a4:	e13ff317 	ldw	r4,-52(fp)
 20015a8:	e17ff417 	ldw	r5,-48(fp)
 20015ac:	01a666b4 	movhi	r6,39322
 20015b0:	31a66684 	addi	r6,r6,-26214
 20015b4:	01cff6b4 	movhi	r7,16346
 20015b8:	39e66644 	addi	r7,r7,-26215
 20015bc:	200d2600 	call	200d260 <__muldf3>
 20015c0:	1009883a 	mov	r4,r2
 20015c4:	180b883a 	mov	r5,r3
 20015c8:	2005883a 	mov	r2,r4
 20015cc:	2807883a 	mov	r3,r5
 20015d0:	1009883a 	mov	r4,r2
 20015d4:	180b883a 	mov	r5,r3
 20015d8:	000d883a 	mov	r6,zero
 20015dc:	01d01c34 	movhi	r7,16496
 20015e0:	39f80004 	addi	r7,r7,-8192
 20015e4:	200d6240 	call	200d624 <__divdf3>
 20015e8:	1009883a 	mov	r4,r2
 20015ec:	180b883a 	mov	r5,r3
 20015f0:	e13ff315 	stw	r4,-52(fp)
 20015f4:	e17ff415 	stw	r5,-48(fp)
			}break;
 20015f8:	00006706 	br	2001798 <Vpp_printf+0x3f0>
			case 5:{
				//2.5  100mV/div   FF--800mV
				x=(x*0.8)/255.0f;
 20015fc:	e13ff317 	ldw	r4,-52(fp)
 2001600:	e17ff417 	ldw	r5,-48(fp)
 2001604:	01a666b4 	movhi	r6,39322
 2001608:	31a66684 	addi	r6,r6,-26214
 200160c:	01cffab4 	movhi	r7,16362
 2001610:	39e66644 	addi	r7,r7,-26215
 2001614:	200d2600 	call	200d260 <__muldf3>
 2001618:	1009883a 	mov	r4,r2
 200161c:	180b883a 	mov	r5,r3
 2001620:	2005883a 	mov	r2,r4
 2001624:	2807883a 	mov	r3,r5
 2001628:	1009883a 	mov	r4,r2
 200162c:	180b883a 	mov	r5,r3
 2001630:	000d883a 	mov	r6,zero
 2001634:	01d01c34 	movhi	r7,16496
 2001638:	39f80004 	addi	r7,r7,-8192
 200163c:	200d6240 	call	200d624 <__divdf3>
 2001640:	1009883a 	mov	r4,r2
 2001644:	180b883a 	mov	r5,r3
 2001648:	e13ff315 	stw	r4,-52(fp)
 200164c:	e17ff415 	stw	r5,-48(fp)
			}break;
 2001650:	00005106 	br	2001798 <Vpp_printf+0x3f0>
			case 6:{
				//1.25 200mV/div   FF--1.6V
				x=(x*1.6)/255.0f;
 2001654:	e13ff317 	ldw	r4,-52(fp)
 2001658:	e17ff417 	ldw	r5,-48(fp)
 200165c:	01a666b4 	movhi	r6,39322
 2001660:	31a66684 	addi	r6,r6,-26214
 2001664:	01cffeb4 	movhi	r7,16378
 2001668:	39e66644 	addi	r7,r7,-26215
 200166c:	200d2600 	call	200d260 <__muldf3>
 2001670:	1009883a 	mov	r4,r2
 2001674:	180b883a 	mov	r5,r3
 2001678:	2005883a 	mov	r2,r4
 200167c:	2807883a 	mov	r3,r5
 2001680:	1009883a 	mov	r4,r2
 2001684:	180b883a 	mov	r5,r3
 2001688:	000d883a 	mov	r6,zero
 200168c:	01d01c34 	movhi	r7,16496
 2001690:	39f80004 	addi	r7,r7,-8192
 2001694:	200d6240 	call	200d624 <__divdf3>
 2001698:	1009883a 	mov	r4,r2
 200169c:	180b883a 	mov	r5,r3
 20016a0:	e13ff315 	stw	r4,-52(fp)
 20016a4:	e17ff415 	stw	r5,-48(fp)
			}break;
 20016a8:	00003b06 	br	2001798 <Vpp_printf+0x3f0>
			case 7:{
				//1/2  500mV/div   FF--4V
				x=(x*4)/255.0f;
 20016ac:	e13ff317 	ldw	r4,-52(fp)
 20016b0:	e17ff417 	ldw	r5,-48(fp)
 20016b4:	000d883a 	mov	r6,zero
 20016b8:	01d00434 	movhi	r7,16400
 20016bc:	200d2600 	call	200d260 <__muldf3>
 20016c0:	1009883a 	mov	r4,r2
 20016c4:	180b883a 	mov	r5,r3
 20016c8:	2005883a 	mov	r2,r4
 20016cc:	2807883a 	mov	r3,r5
 20016d0:	1009883a 	mov	r4,r2
 20016d4:	180b883a 	mov	r5,r3
 20016d8:	000d883a 	mov	r6,zero
 20016dc:	01d01c34 	movhi	r7,16496
 20016e0:	39f80004 	addi	r7,r7,-8192
 20016e4:	200d6240 	call	200d624 <__divdf3>
 20016e8:	1009883a 	mov	r4,r2
 20016ec:	180b883a 	mov	r5,r3
 20016f0:	e13ff315 	stw	r4,-52(fp)
 20016f4:	e17ff415 	stw	r5,-48(fp)
			}break;
 20016f8:	00002706 	br	2001798 <Vpp_printf+0x3f0>
			case 8:{
				//1/4 1V/div   FF--8V
				//4*2/255
				x=(x*8)/255.0f;
 20016fc:	e13ff317 	ldw	r4,-52(fp)
 2001700:	e17ff417 	ldw	r5,-48(fp)
 2001704:	000d883a 	mov	r6,zero
 2001708:	01d00834 	movhi	r7,16416
 200170c:	200d2600 	call	200d260 <__muldf3>
 2001710:	1009883a 	mov	r4,r2
 2001714:	180b883a 	mov	r5,r3
 2001718:	2005883a 	mov	r2,r4
 200171c:	2807883a 	mov	r3,r5
 2001720:	1009883a 	mov	r4,r2
 2001724:	180b883a 	mov	r5,r3
 2001728:	000d883a 	mov	r6,zero
 200172c:	01d01c34 	movhi	r7,16496
 2001730:	39f80004 	addi	r7,r7,-8192
 2001734:	200d6240 	call	200d624 <__divdf3>
 2001738:	1009883a 	mov	r4,r2
 200173c:	180b883a 	mov	r5,r3
 2001740:	e13ff315 	stw	r4,-52(fp)
 2001744:	e17ff415 	stw	r5,-48(fp)
			}break;
 2001748:	00001306 	br	2001798 <Vpp_printf+0x3f0>
			case 9:{
				//1/8  2.00V/div   FF--16V
				x=(x*16)/255.0f;
 200174c:	e13ff317 	ldw	r4,-52(fp)
 2001750:	e17ff417 	ldw	r5,-48(fp)
 2001754:	000d883a 	mov	r6,zero
 2001758:	01d00c34 	movhi	r7,16432
 200175c:	200d2600 	call	200d260 <__muldf3>
 2001760:	1009883a 	mov	r4,r2
 2001764:	180b883a 	mov	r5,r3
 2001768:	2005883a 	mov	r2,r4
 200176c:	2807883a 	mov	r3,r5
 2001770:	1009883a 	mov	r4,r2
 2001774:	180b883a 	mov	r5,r3
 2001778:	000d883a 	mov	r6,zero
 200177c:	01d01c34 	movhi	r7,16496
 2001780:	39f80004 	addi	r7,r7,-8192
 2001784:	200d6240 	call	200d624 <__divdf3>
 2001788:	1009883a 	mov	r4,r2
 200178c:	180b883a 	mov	r5,r3
 2001790:	e13ff315 	stw	r4,-52(fp)
 2001794:	e17ff415 	stw	r5,-48(fp)
			}break;
			default:
				break;
		}
	if(x>=0 && x<1000)
 2001798:	e03ffe05 	stb	zero,-8(fp)
 200179c:	e13ff317 	ldw	r4,-52(fp)
 20017a0:	e17ff417 	ldw	r5,-48(fp)
 20017a4:	000d883a 	mov	r6,zero
 20017a8:	000f883a 	mov	r7,zero
 20017ac:	200da140 	call	200da14 <__gedf2>
 20017b0:	1004403a 	cmpge	r2,r2,zero
 20017b4:	1000011e 	bne	r2,zero,20017bc <Vpp_printf+0x414>
 20017b8:	00000206 	br	20017c4 <Vpp_printf+0x41c>
 20017bc:	00800044 	movi	r2,1
 20017c0:	e0bffe05 	stb	r2,-8(fp)
 20017c4:	e0fffe03 	ldbu	r3,-8(fp)
 20017c8:	1880005c 	xori	r2,r3,1
 20017cc:	10803fcc 	andi	r2,r2,255
 20017d0:	1004c03a 	cmpne	r2,r2,zero
 20017d4:	1000401e 	bne	r2,zero,20018d8 <Vpp_printf+0x530>
 20017d8:	e03ffd05 	stb	zero,-12(fp)
 20017dc:	e13ff317 	ldw	r4,-52(fp)
 20017e0:	e17ff417 	ldw	r5,-48(fp)
 20017e4:	000d883a 	mov	r6,zero
 20017e8:	01d023f4 	movhi	r7,16527
 20017ec:	39d00004 	addi	r7,r7,16384
 20017f0:	200da9c0 	call	200da9c <__ltdf2>
 20017f4:	1004803a 	cmplt	r2,r2,zero
 20017f8:	1000011e 	bne	r2,zero,2001800 <Vpp_printf+0x458>
 20017fc:	00000206 	br	2001808 <Vpp_printf+0x460>
 2001800:	01000044 	movi	r4,1
 2001804:	e13ffd05 	stb	r4,-12(fp)
 2001808:	e0fffd03 	ldbu	r3,-12(fp)
 200180c:	1880005c 	xori	r2,r3,1
 2001810:	10803fcc 	andi	r2,r2,255
 2001814:	1004c03a 	cmpne	r2,r2,zero
 2001818:	10002f1e 	bne	r2,zero,20018d8 <Vpp_printf+0x530>
   	{
		BUF2[0]=(alt_u32)x/100%10+0x30;
 200181c:	e13ff317 	ldw	r4,-52(fp)
 2001820:	e17ff417 	ldw	r5,-48(fp)
 2001824:	200c3d00 	call	200c3d0 <__fixunsdfsi>
 2001828:	1007883a 	mov	r3,r2
 200182c:	00801904 	movi	r2,100
 2001830:	1887203a 	divu	r3,r3,r2
 2001834:	00800284 	movi	r2,10
 2001838:	1885203a 	divu	r2,r3,r2
 200183c:	108002a4 	muli	r2,r2,10
 2001840:	1885c83a 	sub	r2,r3,r2
 2001844:	10800c04 	addi	r2,r2,48
 2001848:	e0bff505 	stb	r2,-44(fp)
		BUF2[1]=(alt_u32)x/10%10+0x30;
 200184c:	e13ff317 	ldw	r4,-52(fp)
 2001850:	e17ff417 	ldw	r5,-48(fp)
 2001854:	200c3d00 	call	200c3d0 <__fixunsdfsi>
 2001858:	1007883a 	mov	r3,r2
 200185c:	00800284 	movi	r2,10
 2001860:	1887203a 	divu	r3,r3,r2
 2001864:	00800284 	movi	r2,10
 2001868:	1885203a 	divu	r2,r3,r2
 200186c:	108002a4 	muli	r2,r2,10
 2001870:	1885c83a 	sub	r2,r3,r2
 2001874:	10800c04 	addi	r2,r2,48
 2001878:	e0bff545 	stb	r2,-43(fp)
		BUF2[2]='.';
 200187c:	00800b84 	movi	r2,46
 2001880:	e0bff585 	stb	r2,-42(fp)
		BUF2[3]=(alt_u32)x%10+0x30;
 2001884:	e13ff317 	ldw	r4,-52(fp)
 2001888:	e17ff417 	ldw	r5,-48(fp)
 200188c:	200c3d00 	call	200c3d0 <__fixunsdfsi>
 2001890:	1007883a 	mov	r3,r2
 2001894:	00800284 	movi	r2,10
 2001898:	1885203a 	divu	r2,r3,r2
 200189c:	108002a4 	muli	r2,r2,10
 20018a0:	1885c83a 	sub	r2,r3,r2
 20018a4:	10800c04 	addi	r2,r2,48
 20018a8:	e0bff5c5 	stb	r2,-41(fp)
		BUF2[4]='m';
 20018ac:	00801b44 	movi	r2,109
 20018b0:	e0bff605 	stb	r2,-40(fp)
		if(BUF2[0]==0x30) 	BUF2[0]=' ';
 20018b4:	e0bff503 	ldbu	r2,-44(fp)
 20018b8:	10803fcc 	andi	r2,r2,255
 20018bc:	1080201c 	xori	r2,r2,128
 20018c0:	10bfe004 	addi	r2,r2,-128
 20018c4:	10800c18 	cmpnei	r2,r2,48
 20018c8:	10010e1e 	bne	r2,zero,2001d04 <Vpp_printf+0x95c>
 20018cc:	00800804 	movi	r2,32
 20018d0:	e0bff505 	stb	r2,-44(fp)
				x=(x*16)/255.0f;
			}break;
			default:
				break;
		}
	if(x>=0 && x<1000)
 20018d4:	00010b06 	br	2001d04 <Vpp_printf+0x95c>
		BUF2[2]='.';
		BUF2[3]=(alt_u32)x%10+0x30;
		BUF2[4]='m';
		if(BUF2[0]==0x30) 	BUF2[0]=' ';
	}
	else if(x>=1000 && x<10000)
 20018d8:	e03ffc05 	stb	zero,-16(fp)
 20018dc:	e13ff317 	ldw	r4,-52(fp)
 20018e0:	e17ff417 	ldw	r5,-48(fp)
 20018e4:	000d883a 	mov	r6,zero
 20018e8:	01d023f4 	movhi	r7,16527
 20018ec:	39d00004 	addi	r7,r7,16384
 20018f0:	200da140 	call	200da14 <__gedf2>
 20018f4:	1004403a 	cmpge	r2,r2,zero
 20018f8:	1000011e 	bne	r2,zero,2001900 <Vpp_printf+0x558>
 20018fc:	00000206 	br	2001908 <Vpp_printf+0x560>
 2001900:	01000044 	movi	r4,1
 2001904:	e13ffc05 	stb	r4,-16(fp)
 2001908:	e0fffc03 	ldbu	r3,-16(fp)
 200190c:	1880005c 	xori	r2,r3,1
 2001910:	10803fcc 	andi	r2,r2,255
 2001914:	1004c03a 	cmpne	r2,r2,zero
 2001918:	10003a1e 	bne	r2,zero,2001a04 <Vpp_printf+0x65c>
 200191c:	e03ffb05 	stb	zero,-20(fp)
 2001920:	e13ff317 	ldw	r4,-52(fp)
 2001924:	e17ff417 	ldw	r5,-48(fp)
 2001928:	000d883a 	mov	r6,zero
 200192c:	01d03134 	movhi	r7,16580
 2001930:	39e20004 	addi	r7,r7,-30720
 2001934:	200da9c0 	call	200da9c <__ltdf2>
 2001938:	1004803a 	cmplt	r2,r2,zero
 200193c:	1000011e 	bne	r2,zero,2001944 <Vpp_printf+0x59c>
 2001940:	00000206 	br	200194c <Vpp_printf+0x5a4>
 2001944:	01000044 	movi	r4,1
 2001948:	e13ffb05 	stb	r4,-20(fp)
 200194c:	e0fffb03 	ldbu	r3,-20(fp)
 2001950:	1880005c 	xori	r2,r3,1
 2001954:	10803fcc 	andi	r2,r2,255
 2001958:	1004c03a 	cmpne	r2,r2,zero
 200195c:	1000291e 	bne	r2,zero,2001a04 <Vpp_printf+0x65c>
   	{
		BUF2[0]=' ';
 2001960:	00800804 	movi	r2,32
 2001964:	e0bff505 	stb	r2,-44(fp)
		BUF2[1]=(alt_u32)x/1000%10+0x30;
 2001968:	e13ff317 	ldw	r4,-52(fp)
 200196c:	e17ff417 	ldw	r5,-48(fp)
 2001970:	200c3d00 	call	200c3d0 <__fixunsdfsi>
 2001974:	1007883a 	mov	r3,r2
 2001978:	0080fa04 	movi	r2,1000
 200197c:	1887203a 	divu	r3,r3,r2
 2001980:	00800284 	movi	r2,10
 2001984:	1885203a 	divu	r2,r3,r2
 2001988:	108002a4 	muli	r2,r2,10
 200198c:	1885c83a 	sub	r2,r3,r2
 2001990:	10800c04 	addi	r2,r2,48
 2001994:	e0bff545 	stb	r2,-43(fp)
		BUF2[2]=(alt_u32)x/100%10+0x30;
 2001998:	e13ff317 	ldw	r4,-52(fp)
 200199c:	e17ff417 	ldw	r5,-48(fp)
 20019a0:	200c3d00 	call	200c3d0 <__fixunsdfsi>
 20019a4:	1007883a 	mov	r3,r2
 20019a8:	00801904 	movi	r2,100
 20019ac:	1887203a 	divu	r3,r3,r2
 20019b0:	00800284 	movi	r2,10
 20019b4:	1885203a 	divu	r2,r3,r2
 20019b8:	108002a4 	muli	r2,r2,10
 20019bc:	1885c83a 	sub	r2,r3,r2
 20019c0:	10800c04 	addi	r2,r2,48
 20019c4:	e0bff585 	stb	r2,-42(fp)
		BUF2[3]=(alt_u32)x/10%10+0x30;
 20019c8:	e13ff317 	ldw	r4,-52(fp)
 20019cc:	e17ff417 	ldw	r5,-48(fp)
 20019d0:	200c3d00 	call	200c3d0 <__fixunsdfsi>
 20019d4:	1007883a 	mov	r3,r2
 20019d8:	00800284 	movi	r2,10
 20019dc:	1887203a 	divu	r3,r3,r2
 20019e0:	00800284 	movi	r2,10
 20019e4:	1885203a 	divu	r2,r3,r2
 20019e8:	108002a4 	muli	r2,r2,10
 20019ec:	1885c83a 	sub	r2,r3,r2
 20019f0:	10800c04 	addi	r2,r2,48
 20019f4:	e0bff5c5 	stb	r2,-41(fp)
		BUF2[4]='m';
 20019f8:	00801b44 	movi	r2,109
 20019fc:	e0bff605 	stb	r2,-40(fp)
		BUF2[2]='.';
		BUF2[3]=(alt_u32)x%10+0x30;
		BUF2[4]='m';
		if(BUF2[0]==0x30) 	BUF2[0]=' ';
	}
	else if(x>=1000 && x<10000)
 2001a00:	0000c006 	br	2001d04 <Vpp_printf+0x95c>
		BUF2[1]=(alt_u32)x/1000%10+0x30;
		BUF2[2]=(alt_u32)x/100%10+0x30;
		BUF2[3]=(alt_u32)x/10%10+0x30;
		BUF2[4]='m';
	}
	else if(x>=10000 && x<100000)
 2001a04:	e03ffa05 	stb	zero,-24(fp)
 2001a08:	e13ff317 	ldw	r4,-52(fp)
 2001a0c:	e17ff417 	ldw	r5,-48(fp)
 2001a10:	000d883a 	mov	r6,zero
 2001a14:	01d03134 	movhi	r7,16580
 2001a18:	39e20004 	addi	r7,r7,-30720
 2001a1c:	200da140 	call	200da14 <__gedf2>
 2001a20:	1004403a 	cmpge	r2,r2,zero
 2001a24:	1000011e 	bne	r2,zero,2001a2c <Vpp_printf+0x684>
 2001a28:	00000206 	br	2001a34 <Vpp_printf+0x68c>
 2001a2c:	01000044 	movi	r4,1
 2001a30:	e13ffa05 	stb	r4,-24(fp)
 2001a34:	e0fffa03 	ldbu	r3,-24(fp)
 2001a38:	1880005c 	xori	r2,r3,1
 2001a3c:	10803fcc 	andi	r2,r2,255
 2001a40:	1004c03a 	cmpne	r2,r2,zero
 2001a44:	1000451e 	bne	r2,zero,2001b5c <Vpp_printf+0x7b4>
 2001a48:	e03ff905 	stb	zero,-28(fp)
 2001a4c:	e13ff317 	ldw	r4,-52(fp)
 2001a50:	e17ff417 	ldw	r5,-48(fp)
 2001a54:	000d883a 	mov	r6,zero
 2001a58:	01d03e34 	movhi	r7,16632
 2001a5c:	39da8004 	addi	r7,r7,27136
 2001a60:	200da9c0 	call	200da9c <__ltdf2>
 2001a64:	1004803a 	cmplt	r2,r2,zero
 2001a68:	1000011e 	bne	r2,zero,2001a70 <Vpp_printf+0x6c8>
 2001a6c:	00000206 	br	2001a78 <Vpp_printf+0x6d0>
 2001a70:	01000044 	movi	r4,1
 2001a74:	e13ff905 	stb	r4,-28(fp)
 2001a78:	e0fff903 	ldbu	r3,-28(fp)
 2001a7c:	1880005c 	xori	r2,r3,1
 2001a80:	10803fcc 	andi	r2,r2,255
 2001a84:	1004c03a 	cmpne	r2,r2,zero
 2001a88:	1000341e 	bne	r2,zero,2001b5c <Vpp_printf+0x7b4>
	{
		BUF2[0]=' ';
 2001a8c:	00800804 	movi	r2,32
 2001a90:	e0bff505 	stb	r2,-44(fp)
		BUF2[1]=x/10000+0x30;
 2001a94:	e13ff317 	ldw	r4,-52(fp)
 2001a98:	e17ff417 	ldw	r5,-48(fp)
 2001a9c:	000d883a 	mov	r6,zero
 2001aa0:	01d03134 	movhi	r7,16580
 2001aa4:	39e20004 	addi	r7,r7,-30720
 2001aa8:	200d6240 	call	200d624 <__divdf3>
 2001aac:	1009883a 	mov	r4,r2
 2001ab0:	180b883a 	mov	r5,r3
 2001ab4:	2005883a 	mov	r2,r4
 2001ab8:	2807883a 	mov	r3,r5
 2001abc:	1009883a 	mov	r4,r2
 2001ac0:	180b883a 	mov	r5,r3
 2001ac4:	000d883a 	mov	r6,zero
 2001ac8:	01d01234 	movhi	r7,16456
 2001acc:	200d1ec0 	call	200d1ec <__adddf3>
 2001ad0:	1009883a 	mov	r4,r2
 2001ad4:	180b883a 	mov	r5,r3
 2001ad8:	2005883a 	mov	r2,r4
 2001adc:	2807883a 	mov	r3,r5
 2001ae0:	1009883a 	mov	r4,r2
 2001ae4:	180b883a 	mov	r5,r3
 2001ae8:	200dca40 	call	200dca4 <__fixdfsi>
 2001aec:	e0bff545 	stb	r2,-43(fp)
		BUF2[2]='.';
 2001af0:	00800b84 	movi	r2,46
 2001af4:	e0bff585 	stb	r2,-42(fp)
		BUF2[3]=(alt_u32)x/1000%10+0x30;
 2001af8:	e13ff317 	ldw	r4,-52(fp)
 2001afc:	e17ff417 	ldw	r5,-48(fp)
 2001b00:	200c3d00 	call	200c3d0 <__fixunsdfsi>
 2001b04:	1007883a 	mov	r3,r2
 2001b08:	0080fa04 	movi	r2,1000
 2001b0c:	1887203a 	divu	r3,r3,r2
 2001b10:	00800284 	movi	r2,10
 2001b14:	1885203a 	divu	r2,r3,r2
 2001b18:	108002a4 	muli	r2,r2,10
 2001b1c:	1885c83a 	sub	r2,r3,r2
 2001b20:	10800c04 	addi	r2,r2,48
 2001b24:	e0bff5c5 	stb	r2,-41(fp)
		BUF2[4]=(alt_u32)x/100%10+0x30;
 2001b28:	e13ff317 	ldw	r4,-52(fp)
 2001b2c:	e17ff417 	ldw	r5,-48(fp)
 2001b30:	200c3d00 	call	200c3d0 <__fixunsdfsi>
 2001b34:	1007883a 	mov	r3,r2
 2001b38:	00801904 	movi	r2,100
 2001b3c:	1887203a 	divu	r3,r3,r2
 2001b40:	00800284 	movi	r2,10
 2001b44:	1885203a 	divu	r2,r3,r2
 2001b48:	108002a4 	muli	r2,r2,10
 2001b4c:	1885c83a 	sub	r2,r3,r2
 2001b50:	10800c04 	addi	r2,r2,48
 2001b54:	e0bff605 	stb	r2,-40(fp)
		BUF2[1]=(alt_u32)x/1000%10+0x30;
		BUF2[2]=(alt_u32)x/100%10+0x30;
		BUF2[3]=(alt_u32)x/10%10+0x30;
		BUF2[4]='m';
	}
	else if(x>=10000 && x<100000)
 2001b58:	00006a06 	br	2001d04 <Vpp_printf+0x95c>
		BUF2[2]='.';
		BUF2[3]=(alt_u32)x/1000%10+0x30;
		BUF2[4]=(alt_u32)x/100%10+0x30;

	}
	else if(x>=100000 && x<1000000)
 2001b5c:	e03ff805 	stb	zero,-32(fp)
 2001b60:	e13ff317 	ldw	r4,-52(fp)
 2001b64:	e17ff417 	ldw	r5,-48(fp)
 2001b68:	000d883a 	mov	r6,zero
 2001b6c:	01d03e34 	movhi	r7,16632
 2001b70:	39da8004 	addi	r7,r7,27136
 2001b74:	200da140 	call	200da14 <__gedf2>
 2001b78:	1004403a 	cmpge	r2,r2,zero
 2001b7c:	1000011e 	bne	r2,zero,2001b84 <Vpp_printf+0x7dc>
 2001b80:	00000206 	br	2001b8c <Vpp_printf+0x7e4>
 2001b84:	01000044 	movi	r4,1
 2001b88:	e13ff805 	stb	r4,-32(fp)
 2001b8c:	e0fff803 	ldbu	r3,-32(fp)
 2001b90:	1880005c 	xori	r2,r3,1
 2001b94:	10803fcc 	andi	r2,r2,255
 2001b98:	1004c03a 	cmpne	r2,r2,zero
 2001b9c:	10004f1e 	bne	r2,zero,2001cdc <Vpp_printf+0x934>
 2001ba0:	e03ff705 	stb	zero,-36(fp)
 2001ba4:	e13ff317 	ldw	r4,-52(fp)
 2001ba8:	e17ff417 	ldw	r5,-48(fp)
 2001bac:	000d883a 	mov	r6,zero
 2001bb0:	01d04bf4 	movhi	r7,16687
 2001bb4:	39e12004 	addi	r7,r7,-31616
 2001bb8:	200da9c0 	call	200da9c <__ltdf2>
 2001bbc:	1004803a 	cmplt	r2,r2,zero
 2001bc0:	1000011e 	bne	r2,zero,2001bc8 <Vpp_printf+0x820>
 2001bc4:	00000206 	br	2001bd0 <Vpp_printf+0x828>
 2001bc8:	01000044 	movi	r4,1
 2001bcc:	e13ff705 	stb	r4,-36(fp)
 2001bd0:	e0fff703 	ldbu	r3,-36(fp)
 2001bd4:	1880005c 	xori	r2,r3,1
 2001bd8:	10803fcc 	andi	r2,r2,255
 2001bdc:	1004c03a 	cmpne	r2,r2,zero
 2001be0:	10003e1e 	bne	r2,zero,2001cdc <Vpp_printf+0x934>
	{
		BUF2[0]=x/100000+0x30;;
 2001be4:	e13ff317 	ldw	r4,-52(fp)
 2001be8:	e17ff417 	ldw	r5,-48(fp)
 2001bec:	000d883a 	mov	r6,zero
 2001bf0:	01d03e34 	movhi	r7,16632
 2001bf4:	39da8004 	addi	r7,r7,27136
 2001bf8:	200d6240 	call	200d624 <__divdf3>
 2001bfc:	1009883a 	mov	r4,r2
 2001c00:	180b883a 	mov	r5,r3
 2001c04:	2005883a 	mov	r2,r4
 2001c08:	2807883a 	mov	r3,r5
 2001c0c:	1009883a 	mov	r4,r2
 2001c10:	180b883a 	mov	r5,r3
 2001c14:	000d883a 	mov	r6,zero
 2001c18:	01d01234 	movhi	r7,16456
 2001c1c:	200d1ec0 	call	200d1ec <__adddf3>
 2001c20:	1009883a 	mov	r4,r2
 2001c24:	180b883a 	mov	r5,r3
 2001c28:	2005883a 	mov	r2,r4
 2001c2c:	2807883a 	mov	r3,r5
 2001c30:	1009883a 	mov	r4,r2
 2001c34:	180b883a 	mov	r5,r3
 2001c38:	200dca40 	call	200dca4 <__fixdfsi>
 2001c3c:	e0bff505 	stb	r2,-44(fp)
		BUF2[1]=(alt_u32)x/10000%10+0x30;
 2001c40:	e13ff317 	ldw	r4,-52(fp)
 2001c44:	e17ff417 	ldw	r5,-48(fp)
 2001c48:	200c3d00 	call	200c3d0 <__fixunsdfsi>
 2001c4c:	1007883a 	mov	r3,r2
 2001c50:	0089c404 	movi	r2,10000
 2001c54:	1887203a 	divu	r3,r3,r2
 2001c58:	00800284 	movi	r2,10
 2001c5c:	1885203a 	divu	r2,r3,r2
 2001c60:	108002a4 	muli	r2,r2,10
 2001c64:	1885c83a 	sub	r2,r3,r2
 2001c68:	10800c04 	addi	r2,r2,48
 2001c6c:	e0bff545 	stb	r2,-43(fp)
		BUF2[2]='.';
 2001c70:	00800b84 	movi	r2,46
 2001c74:	e0bff585 	stb	r2,-42(fp)
		BUF2[3]=(alt_u32)x/1000%10+0x30;
 2001c78:	e13ff317 	ldw	r4,-52(fp)
 2001c7c:	e17ff417 	ldw	r5,-48(fp)
 2001c80:	200c3d00 	call	200c3d0 <__fixunsdfsi>
 2001c84:	1007883a 	mov	r3,r2
 2001c88:	0080fa04 	movi	r2,1000
 2001c8c:	1887203a 	divu	r3,r3,r2
 2001c90:	00800284 	movi	r2,10
 2001c94:	1885203a 	divu	r2,r3,r2
 2001c98:	108002a4 	muli	r2,r2,10
 2001c9c:	1885c83a 	sub	r2,r3,r2
 2001ca0:	10800c04 	addi	r2,r2,48
 2001ca4:	e0bff5c5 	stb	r2,-41(fp)
		BUF2[4]=(alt_u32)x/100%10+0x30;
 2001ca8:	e13ff317 	ldw	r4,-52(fp)
 2001cac:	e17ff417 	ldw	r5,-48(fp)
 2001cb0:	200c3d00 	call	200c3d0 <__fixunsdfsi>
 2001cb4:	1007883a 	mov	r3,r2
 2001cb8:	00801904 	movi	r2,100
 2001cbc:	1887203a 	divu	r3,r3,r2
 2001cc0:	00800284 	movi	r2,10
 2001cc4:	1885203a 	divu	r2,r3,r2
 2001cc8:	108002a4 	muli	r2,r2,10
 2001ccc:	1885c83a 	sub	r2,r3,r2
 2001cd0:	10800c04 	addi	r2,r2,48
 2001cd4:	e0bff605 	stb	r2,-40(fp)
		BUF2[2]='.';
		BUF2[3]=(alt_u32)x/1000%10+0x30;
		BUF2[4]=(alt_u32)x/100%10+0x30;

	}
	else if(x>=100000 && x<1000000)
 2001cd8:	00000a06 	br	2001d04 <Vpp_printf+0x95c>
		BUF2[3]=(alt_u32)x/1000%10+0x30;
		BUF2[4]=(alt_u32)x/100%10+0x30;

	}
	else
		BUF2[0]=BUF2[1]=BUF2[2]=BUF2[3]=BUF2[4]='*';
 2001cdc:	00800a84 	movi	r2,42
 2001ce0:	e0bff605 	stb	r2,-40(fp)
 2001ce4:	e0bff603 	ldbu	r2,-40(fp)
 2001ce8:	e0bff5c5 	stb	r2,-41(fp)
 2001cec:	e0bff5c3 	ldbu	r2,-41(fp)
 2001cf0:	e0bff585 	stb	r2,-42(fp)
 2001cf4:	e0bff583 	ldbu	r2,-42(fp)
 2001cf8:	e0bff545 	stb	r2,-43(fp)
 2001cfc:	e0bff543 	ldbu	r2,-43(fp)
 2001d00:	e0bff505 	stb	r2,-44(fp)
	BUF2[5]='V';
 2001d04:	00801584 	movi	r2,86
 2001d08:	e0bff645 	stb	r2,-39(fp)
	BUF2[6]='\0';
 2001d0c:	e03ff685 	stb	zero,-38(fp)
	ili9320_ShowString(34,225,110,12,12,BUF2,YELLOW,BLACK);
 2001d10:	e0fff504 	addi	r3,fp,-44
 2001d14:	00800304 	movi	r2,12
 2001d18:	d8800015 	stw	r2,0(sp)
 2001d1c:	d8c00115 	stw	r3,4(sp)
 2001d20:	00bff814 	movui	r2,65504
 2001d24:	d8800215 	stw	r2,8(sp)
 2001d28:	d8000315 	stw	zero,12(sp)
 2001d2c:	01000884 	movi	r4,34
 2001d30:	01403844 	movi	r5,225
 2001d34:	01801b84 	movi	r6,110
 2001d38:	01c00304 	movi	r7,12
 2001d3c:	200614c0 	call	200614c <ili9320_ShowString>
}
 2001d40:	e037883a 	mov	sp,fp
 2001d44:	dfc00117 	ldw	ra,4(sp)
 2001d48:	df000017 	ldw	fp,0(sp)
 2001d4c:	dec00204 	addi	sp,sp,8
 2001d50:	f800283a 	ret

02001d54 <DispFrame>:
*	  :	
*	  :	
*	  
*/
void DispFrame(void)
{
 2001d54:	defff904 	addi	sp,sp,-28
 2001d58:	dfc00615 	stw	ra,24(sp)
 2001d5c:	df000515 	stw	fp,20(sp)
 2001d60:	df000504 	addi	fp,sp,20
	alt_u16 x, y;
	ili9320_ShowString(2,Y0-5,12,12,12,">",BLACK,YELLOW);
 2001d64:	d0a00003 	ldbu	r2,-32768(gp)
 2001d68:	10803fcc 	andi	r2,r2,255
 2001d6c:	10bffec4 	addi	r2,r2,-5
 2001d70:	117fffcc 	andi	r5,r2,65535
 2001d74:	00c080b4 	movhi	r3,514
 2001d78:	18cedb04 	addi	r3,r3,15212
 2001d7c:	00800304 	movi	r2,12
 2001d80:	d8800015 	stw	r2,0(sp)
 2001d84:	d8c00115 	stw	r3,4(sp)
 2001d88:	d8000215 	stw	zero,8(sp)
 2001d8c:	00bff814 	movui	r2,65504
 2001d90:	d8800315 	stw	r2,12(sp)
 2001d94:	01000084 	movi	r4,2
 2001d98:	01800304 	movi	r6,12
 2001d9c:	01c00304 	movi	r7,12
 2001da0:	200614c0 	call	200614c <ili9320_ShowString>
	ili9320_ShowString(10,225,110,12,12,"Vpp=******",YELLOW,BLACK);
 2001da4:	00c080b4 	movhi	r3,514
 2001da8:	18cedc04 	addi	r3,r3,15216
 2001dac:	00800304 	movi	r2,12
 2001db0:	d8800015 	stw	r2,0(sp)
 2001db4:	d8c00115 	stw	r3,4(sp)
 2001db8:	00bff814 	movui	r2,65504
 2001dbc:	d8800215 	stw	r2,8(sp)
 2001dc0:	d8000315 	stw	zero,12(sp)
 2001dc4:	01000284 	movi	r4,10
 2001dc8:	01403844 	movi	r5,225
 2001dcc:	01801b84 	movi	r6,110
 2001dd0:	01c00304 	movi	r7,12
 2001dd4:	200614c0 	call	200614c <ili9320_ShowString>
	ili9320_ShowString(77,225,120,12,12,"Freq=",YELLOW,BLACK);
 2001dd8:	00c080b4 	movhi	r3,514
 2001ddc:	18cedf04 	addi	r3,r3,15228
 2001de0:	00800304 	movi	r2,12
 2001de4:	d8800015 	stw	r2,0(sp)
 2001de8:	d8c00115 	stw	r3,4(sp)
 2001dec:	00bff814 	movui	r2,65504
 2001df0:	d8800215 	stw	r2,8(sp)
 2001df4:	d8000315 	stw	zero,12(sp)
 2001df8:	01001344 	movi	r4,77
 2001dfc:	01403844 	movi	r5,225
 2001e00:	01801e04 	movi	r6,120
 2001e04:	01c00304 	movi	r7,12
 2001e08:	200614c0 	call	200614c <ili9320_ShowString>
	//ili9320_ShowNum(300,5,TRIG_DATA,3,12,WHITE,BLACK);
	//ili9320_ShowNum(300,225,X0,3,12,WHITE,BLACK);
	if(save_control & 0x01)
 2001e0c:	d0a03683 	ldbu	r2,-32550(gp)
 2001e10:	10803fcc 	andi	r2,r2,255
 2001e14:	1080004c 	andi	r2,r2,1
 2001e18:	10803fcc 	andi	r2,r2,255
 2001e1c:	1005003a 	cmpeq	r2,r2,zero
 2001e20:	10000f1e 	bne	r2,zero,2001e60 <DispFrame+0x10c>
	{

		ili9320_ShowString(313,25,48,12,12,"P",WHITE,RED);
 2001e24:	00c080b4 	movhi	r3,514
 2001e28:	18cee104 	addi	r3,r3,15236
 2001e2c:	00800304 	movi	r2,12
 2001e30:	d8800015 	stw	r2,0(sp)
 2001e34:	d8c00115 	stw	r3,4(sp)
 2001e38:	00bfffd4 	movui	r2,65535
 2001e3c:	d8800215 	stw	r2,8(sp)
 2001e40:	00be0014 	movui	r2,63488
 2001e44:	d8800315 	stw	r2,12(sp)
 2001e48:	01004e44 	movi	r4,313
 2001e4c:	01400644 	movi	r5,25
 2001e50:	01800c04 	movi	r6,48
 2001e54:	01c00304 	movi	r7,12
 2001e58:	200614c0 	call	200614c <ili9320_ShowString>
 2001e5c:	00000d06 	br	2001e94 <DispFrame+0x140>
	}
	else
	{

		ili9320_ShowString(313,25,48,12,12,"P",WHITE,BLACK);
 2001e60:	008080b4 	movhi	r2,514
 2001e64:	108ee104 	addi	r2,r2,15236
 2001e68:	00c00304 	movi	r3,12
 2001e6c:	d8c00015 	stw	r3,0(sp)
 2001e70:	d8800115 	stw	r2,4(sp)
 2001e74:	00bfffd4 	movui	r2,65535
 2001e78:	d8800215 	stw	r2,8(sp)
 2001e7c:	d8000315 	stw	zero,12(sp)
 2001e80:	01004e44 	movi	r4,313
 2001e84:	01400644 	movi	r5,25
 2001e88:	01800c04 	movi	r6,48
 2001e8c:	01c00304 	movi	r7,12
 2001e90:	200614c0 	call	200614c <ili9320_ShowString>
	}
	if(save_control & 0x10)
 2001e94:	d0a03683 	ldbu	r2,-32550(gp)
 2001e98:	10803fcc 	andi	r2,r2,255
 2001e9c:	1080040c 	andi	r2,r2,16
 2001ea0:	1005003a 	cmpeq	r2,r2,zero
 2001ea4:	10000f1e 	bne	r2,zero,2001ee4 <DispFrame+0x190>
	{

		ili9320_ShowString(210,5,48,12,12,"FFT",WHITE,GREEN);
 2001ea8:	00c080b4 	movhi	r3,514
 2001eac:	18cee204 	addi	r3,r3,15240
 2001eb0:	00800304 	movi	r2,12
 2001eb4:	d8800015 	stw	r2,0(sp)
 2001eb8:	d8c00115 	stw	r3,4(sp)
 2001ebc:	00bfffd4 	movui	r2,65535
 2001ec0:	d8800215 	stw	r2,8(sp)
 2001ec4:	0081f804 	movi	r2,2016
 2001ec8:	d8800315 	stw	r2,12(sp)
 2001ecc:	01003484 	movi	r4,210
 2001ed0:	01400144 	movi	r5,5
 2001ed4:	01800c04 	movi	r6,48
 2001ed8:	01c00304 	movi	r7,12
 2001edc:	200614c0 	call	200614c <ili9320_ShowString>
 2001ee0:	00000d06 	br	2001f18 <DispFrame+0x1c4>
	}
	else
	{

		ili9320_ShowString(210,5,48,12,12,"FFT",WHITE,BLACK);
 2001ee4:	008080b4 	movhi	r2,514
 2001ee8:	108ee204 	addi	r2,r2,15240
 2001eec:	00c00304 	movi	r3,12
 2001ef0:	d8c00015 	stw	r3,0(sp)
 2001ef4:	d8800115 	stw	r2,4(sp)
 2001ef8:	00bfffd4 	movui	r2,65535
 2001efc:	d8800215 	stw	r2,8(sp)
 2001f00:	d8000315 	stw	zero,12(sp)
 2001f04:	01003484 	movi	r4,210
 2001f08:	01400144 	movi	r5,5
 2001f0c:	01800c04 	movi	r6,48
 2001f10:	01c00304 	movi	r7,12
 2001f14:	200614c0 	call	200614c <ili9320_ShowString>
	}
	if(save_control & 0x08)
 2001f18:	d0a03683 	ldbu	r2,-32550(gp)
 2001f1c:	10803fcc 	andi	r2,r2,255
 2001f20:	1080020c 	andi	r2,r2,8
 2001f24:	1005003a 	cmpeq	r2,r2,zero
 2001f28:	1000111e 	bne	r2,zero,2001f70 <DispFrame+0x21c>
	{
		IOWR_ALTERA_AVALON_PIO_DATA(RAM_WREN_BASE, 0x00);
 2001f2c:	00892c04 	movi	r2,9392
 2001f30:	10000035 	stwio	zero,0(r2)
		ili9320_ShowString(247,5,48,12,12,"Stop",WHITE,RED);
 2001f34:	00c080b4 	movhi	r3,514
 2001f38:	18cee304 	addi	r3,r3,15244
 2001f3c:	00800304 	movi	r2,12
 2001f40:	d8800015 	stw	r2,0(sp)
 2001f44:	d8c00115 	stw	r3,4(sp)
 2001f48:	00bfffd4 	movui	r2,65535
 2001f4c:	d8800215 	stw	r2,8(sp)
 2001f50:	00be0014 	movui	r2,63488
 2001f54:	d8800315 	stw	r2,12(sp)
 2001f58:	01003dc4 	movi	r4,247
 2001f5c:	01400144 	movi	r5,5
 2001f60:	01800c04 	movi	r6,48
 2001f64:	01c00304 	movi	r7,12
 2001f68:	200614c0 	call	200614c <ili9320_ShowString>
 2001f6c:	00001006 	br	2001fb0 <DispFrame+0x25c>
	}
	else
	{
		IOWR_ALTERA_AVALON_PIO_DATA(RAM_WREN_BASE, 0x01);
 2001f70:	00c92c04 	movi	r3,9392
 2001f74:	00800044 	movi	r2,1
 2001f78:	18800035 	stwio	r2,0(r3)
		ili9320_ShowString(247,5,48,12,12,"Stop",WHITE,BLACK);
 2001f7c:	00c080b4 	movhi	r3,514
 2001f80:	18cee304 	addi	r3,r3,15244
 2001f84:	00800304 	movi	r2,12
 2001f88:	d8800015 	stw	r2,0(sp)
 2001f8c:	d8c00115 	stw	r3,4(sp)
 2001f90:	00bfffd4 	movui	r2,65535
 2001f94:	d8800215 	stw	r2,8(sp)
 2001f98:	d8000315 	stw	zero,12(sp)
 2001f9c:	01003dc4 	movi	r4,247
 2001fa0:	01400144 	movi	r5,5
 2001fa4:	01800c04 	movi	r6,48
 2001fa8:	01c00304 	movi	r7,12
 2001fac:	200614c0 	call	200614c <ili9320_ShowString>
	}
	if(save_control & 0x20)
 2001fb0:	d0a03683 	ldbu	r2,-32550(gp)
 2001fb4:	10803fcc 	andi	r2,r2,255
 2001fb8:	1080080c 	andi	r2,r2,32
 2001fbc:	1005003a 	cmpeq	r2,r2,zero
 2001fc0:	10000f1e 	bne	r2,zero,2002000 <DispFrame+0x2ac>
	{
		ili9320_ShowString(313,205,48,12,12,"D",WHITE,RED);
 2001fc4:	00c080b4 	movhi	r3,514
 2001fc8:	18cee504 	addi	r3,r3,15252
 2001fcc:	00800304 	movi	r2,12
 2001fd0:	d8800015 	stw	r2,0(sp)
 2001fd4:	d8c00115 	stw	r3,4(sp)
 2001fd8:	00bfffd4 	movui	r2,65535
 2001fdc:	d8800215 	stw	r2,8(sp)
 2001fe0:	00be0014 	movui	r2,63488
 2001fe4:	d8800315 	stw	r2,12(sp)
 2001fe8:	01004e44 	movi	r4,313
 2001fec:	01403344 	movi	r5,205
 2001ff0:	01800c04 	movi	r6,48
 2001ff4:	01c00304 	movi	r7,12
 2001ff8:	200614c0 	call	200614c <ili9320_ShowString>
 2001ffc:	00000d06 	br	2002034 <DispFrame+0x2e0>
	}
	else
	{
		ili9320_ShowString(313,205,48,12,12,"D",WHITE,BLACK);
 2002000:	008080b4 	movhi	r2,514
 2002004:	108ee504 	addi	r2,r2,15252
 2002008:	00c00304 	movi	r3,12
 200200c:	d8c00015 	stw	r3,0(sp)
 2002010:	d8800115 	stw	r2,4(sp)
 2002014:	00bfffd4 	movui	r2,65535
 2002018:	d8800215 	stw	r2,8(sp)
 200201c:	d8000315 	stw	zero,12(sp)
 2002020:	01004e44 	movi	r4,313
 2002024:	01403344 	movi	r5,205
 2002028:	01800c04 	movi	r6,48
 200202c:	01c00304 	movi	r7,12
 2002030:	200614c0 	call	200614c <ili9320_ShowString>
	}
	if(save_control & 0x40)
 2002034:	d0a03683 	ldbu	r2,-32550(gp)
 2002038:	10803fcc 	andi	r2,r2,255
 200203c:	1080100c 	andi	r2,r2,64
 2002040:	1005003a 	cmpeq	r2,r2,zero
 2002044:	1000111e 	bne	r2,zero,200208c <DispFrame+0x338>
	{
		IOWR_ALTERA_AVALON_PIO_DATA(TRIG_S_BASE, 0x00);
 2002048:	00892004 	movi	r2,9344
 200204c:	10000035 	stwio	zero,0(r2)
		ili9320_ShowString(313,115,48,12,12,"T",WHITE,RED);
 2002050:	00c080b4 	movhi	r3,514
 2002054:	18cee604 	addi	r3,r3,15256
 2002058:	00800304 	movi	r2,12
 200205c:	d8800015 	stw	r2,0(sp)
 2002060:	d8c00115 	stw	r3,4(sp)
 2002064:	00bfffd4 	movui	r2,65535
 2002068:	d8800215 	stw	r2,8(sp)
 200206c:	00be0014 	movui	r2,63488
 2002070:	d8800315 	stw	r2,12(sp)
 2002074:	01004e44 	movi	r4,313
 2002078:	01401cc4 	movi	r5,115
 200207c:	01800c04 	movi	r6,48
 2002080:	01c00304 	movi	r7,12
 2002084:	200614c0 	call	200614c <ili9320_ShowString>
 2002088:	00001006 	br	20020cc <DispFrame+0x378>
	}
	else
	{
		IOWR_ALTERA_AVALON_PIO_DATA(TRIG_S_BASE, 0x01);
 200208c:	00c92004 	movi	r3,9344
 2002090:	00800044 	movi	r2,1
 2002094:	18800035 	stwio	r2,0(r3)
		ili9320_ShowString(313,115,48,12,12,"T",WHITE,BLACK);
 2002098:	00c080b4 	movhi	r3,514
 200209c:	18cee604 	addi	r3,r3,15256
 20020a0:	00800304 	movi	r2,12
 20020a4:	d8800015 	stw	r2,0(sp)
 20020a8:	d8c00115 	stw	r3,4(sp)
 20020ac:	00bfffd4 	movui	r2,65535
 20020b0:	d8800215 	stw	r2,8(sp)
 20020b4:	d8000315 	stw	zero,12(sp)
 20020b8:	01004e44 	movi	r4,313
 20020bc:	01401cc4 	movi	r5,115
 20020c0:	01800c04 	movi	r6,48
 20020c4:	01c00304 	movi	r7,12
 20020c8:	200614c0 	call	200614c <ili9320_ShowString>
	}
	ili9320_Fill(9, 19, 311, 221,BLACK);
 20020cc:	d8000015 	stw	zero,0(sp)
 20020d0:	01000244 	movi	r4,9
 20020d4:	014004c4 	movi	r5,19
 20020d8:	01804dc4 	movi	r6,311
 20020dc:	01c03744 	movi	r7,221
 20020e0:	2004fe40 	call	2004fe4 <ili9320_Fill>
	/*  x, y, h, w */
	ili9320_DrawRectangle(9, 19, 311, 221,LGRAY);
 20020e4:	00b18614 	movui	r2,50712
 20020e8:	d8800015 	stw	r2,0(sp)
 20020ec:	01000244 	movi	r4,9
 20020f0:	014004c4 	movi	r5,19
 20020f4:	01804dc4 	movi	r6,311
 20020f8:	01c03744 	movi	r7,221
 20020fc:	200560c0 	call	200560c <ili9320_DrawRectangle>
	/*  */
	for (x = 0; x < 13; x++)
 2002100:	e03fff8d 	sth	zero,-2(fp)
 2002104:	00001506 	br	200215c <DispFrame+0x408>
	{
		for (y = 0; y < 41; y++)
 2002108:	e03fff0d 	sth	zero,-4(fp)
 200210c:	00000d06 	br	2002144 <DispFrame+0x3f0>
		{
			ili9320_SetPoint(10 + (x * 25), 20 + (y * 5), WHITE);
 2002110:	e0bfff8b 	ldhu	r2,-2(fp)
 2002114:	10800664 	muli	r2,r2,25
 2002118:	10800284 	addi	r2,r2,10
 200211c:	113fffcc 	andi	r4,r2,65535
 2002120:	e0bfff0b 	ldhu	r2,-4(fp)
 2002124:	10800164 	muli	r2,r2,5
 2002128:	10800504 	addi	r2,r2,20
 200212c:	117fffcc 	andi	r5,r2,65535
 2002130:	01bfffd4 	movui	r6,65535
 2002134:	20051880 	call	2005188 <ili9320_SetPoint>
	/*  x, y, h, w */
	ili9320_DrawRectangle(9, 19, 311, 221,LGRAY);
	/*  */
	for (x = 0; x < 13; x++)
	{
		for (y = 0; y < 41; y++)
 2002138:	e0bfff0b 	ldhu	r2,-4(fp)
 200213c:	10800044 	addi	r2,r2,1
 2002140:	e0bfff0d 	sth	r2,-4(fp)
 2002144:	e0bfff0b 	ldhu	r2,-4(fp)
 2002148:	10800a70 	cmpltui	r2,r2,41
 200214c:	103ff01e 	bne	r2,zero,2002110 <DispFrame+0x3bc>
	}
	ili9320_Fill(9, 19, 311, 221,BLACK);
	/*  x, y, h, w */
	ili9320_DrawRectangle(9, 19, 311, 221,LGRAY);
	/*  */
	for (x = 0; x < 13; x++)
 2002150:	e0bfff8b 	ldhu	r2,-2(fp)
 2002154:	10800044 	addi	r2,r2,1
 2002158:	e0bfff8d 	sth	r2,-2(fp)
 200215c:	e0bfff8b 	ldhu	r2,-2(fp)
 2002160:	10800370 	cmpltui	r2,r2,13
 2002164:	103fe81e 	bne	r2,zero,2002108 <DispFrame+0x3b4>
			ili9320_SetPoint(10 + (x * 25), 20 + (y * 5), WHITE);
		}
	}

	/*  */
	for (y = 0; y < 9; y++)
 2002168:	e03fff0d 	sth	zero,-4(fp)
 200216c:	00001506 	br	20021c4 <DispFrame+0x470>
	{
		for (x = 0; x < 61; x++)
 2002170:	e03fff8d 	sth	zero,-2(fp)
 2002174:	00000d06 	br	20021ac <DispFrame+0x458>
		{
			ili9320_SetPoint(10 + (x * 5), 20 + (y * 25), WHITE);
 2002178:	e0bfff8b 	ldhu	r2,-2(fp)
 200217c:	10800164 	muli	r2,r2,5
 2002180:	10800284 	addi	r2,r2,10
 2002184:	113fffcc 	andi	r4,r2,65535
 2002188:	e0bfff0b 	ldhu	r2,-4(fp)
 200218c:	10800664 	muli	r2,r2,25
 2002190:	10800504 	addi	r2,r2,20
 2002194:	117fffcc 	andi	r5,r2,65535
 2002198:	01bfffd4 	movui	r6,65535
 200219c:	20051880 	call	2005188 <ili9320_SetPoint>
	}

	/*  */
	for (y = 0; y < 9; y++)
	{
		for (x = 0; x < 61; x++)
 20021a0:	e0bfff8b 	ldhu	r2,-2(fp)
 20021a4:	10800044 	addi	r2,r2,1
 20021a8:	e0bfff8d 	sth	r2,-2(fp)
 20021ac:	e0bfff8b 	ldhu	r2,-2(fp)
 20021b0:	10800f70 	cmpltui	r2,r2,61
 20021b4:	103ff01e 	bne	r2,zero,2002178 <DispFrame+0x424>
			ili9320_SetPoint(10 + (x * 25), 20 + (y * 5), WHITE);
		}
	}

	/*  */
	for (y = 0; y < 9; y++)
 20021b8:	e0bfff0b 	ldhu	r2,-4(fp)
 20021bc:	10800044 	addi	r2,r2,1
 20021c0:	e0bfff0d 	sth	r2,-4(fp)
 20021c4:	e0bfff0b 	ldhu	r2,-4(fp)
 20021c8:	10800270 	cmpltui	r2,r2,9
 20021cc:	103fe81e 	bne	r2,zero,2002170 <DispFrame+0x41c>
			ili9320_SetPoint(10 + (x * 5), 20 + (y * 25), WHITE);
		}
	}

	/*  */
	for (y = 0; y < 41; y++)
 20021d0:	e03fff0d 	sth	zero,-4(fp)
 20021d4:	00001106 	br	200221c <DispFrame+0x4c8>
	{
		ili9320_SetPoint(9 + (6 * 25), 20 + (y * 5), WHITE);//159
 20021d8:	e0bfff0b 	ldhu	r2,-4(fp)
 20021dc:	10800164 	muli	r2,r2,5
 20021e0:	10800504 	addi	r2,r2,20
 20021e4:	117fffcc 	andi	r5,r2,65535
 20021e8:	010027c4 	movi	r4,159
 20021ec:	01bfffd4 	movui	r6,65535
 20021f0:	20051880 	call	2005188 <ili9320_SetPoint>
		ili9320_SetPoint(11 + (6 * 25), 20 + (y * 5), WHITE);//161
 20021f4:	e0bfff0b 	ldhu	r2,-4(fp)
 20021f8:	10800164 	muli	r2,r2,5
 20021fc:	10800504 	addi	r2,r2,20
 2002200:	117fffcc 	andi	r5,r2,65535
 2002204:	01002844 	movi	r4,161
 2002208:	01bfffd4 	movui	r6,65535
 200220c:	20051880 	call	2005188 <ili9320_SetPoint>
			ili9320_SetPoint(10 + (x * 5), 20 + (y * 25), WHITE);
		}
	}

	/*  */
	for (y = 0; y < 41; y++)
 2002210:	e0bfff0b 	ldhu	r2,-4(fp)
 2002214:	10800044 	addi	r2,r2,1
 2002218:	e0bfff0d 	sth	r2,-4(fp)
 200221c:	e0bfff0b 	ldhu	r2,-4(fp)
 2002220:	10800a70 	cmpltui	r2,r2,41
 2002224:	103fec1e 	bne	r2,zero,20021d8 <DispFrame+0x484>
		ili9320_SetPoint(9 + (6 * 25), 20 + (y * 5), WHITE);//159
		ili9320_SetPoint(11 + (6 * 25), 20 + (y * 5), WHITE);//161
	}

	/*  */
	for (x = 0; x < 61; x++)
 2002228:	e03fff8d 	sth	zero,-2(fp)
 200222c:	00001106 	br	2002274 <DispFrame+0x520>
	{
		ili9320_SetPoint(10 + (x * 5), 19 + (4 * 25), WHITE);
 2002230:	e0bfff8b 	ldhu	r2,-2(fp)
 2002234:	10800164 	muli	r2,r2,5
 2002238:	10800284 	addi	r2,r2,10
 200223c:	113fffcc 	andi	r4,r2,65535
 2002240:	01401dc4 	movi	r5,119
 2002244:	01bfffd4 	movui	r6,65535
 2002248:	20051880 	call	2005188 <ili9320_SetPoint>
		ili9320_SetPoint(10 + (x * 5), 21 + (4 * 25), WHITE);
 200224c:	e0bfff8b 	ldhu	r2,-2(fp)
 2002250:	10800164 	muli	r2,r2,5
 2002254:	10800284 	addi	r2,r2,10
 2002258:	113fffcc 	andi	r4,r2,65535
 200225c:	01401e44 	movi	r5,121
 2002260:	01bfffd4 	movui	r6,65535
 2002264:	20051880 	call	2005188 <ili9320_SetPoint>
		ili9320_SetPoint(9 + (6 * 25), 20 + (y * 5), WHITE);//159
		ili9320_SetPoint(11 + (6 * 25), 20 + (y * 5), WHITE);//161
	}

	/*  */
	for (x = 0; x < 61; x++)
 2002268:	e0bfff8b 	ldhu	r2,-2(fp)
 200226c:	10800044 	addi	r2,r2,1
 2002270:	e0bfff8d 	sth	r2,-2(fp)
 2002274:	e0bfff8b 	ldhu	r2,-2(fp)
 2002278:	10800f70 	cmpltui	r2,r2,61
 200227c:	103fec1e 	bne	r2,zero,2002230 <DispFrame+0x4dc>
	{
		ili9320_SetPoint(10 + (x * 5), 19 + (4 * 25), WHITE);
		ili9320_SetPoint(10 + (x * 5), 21 + (4 * 25), WHITE);
	}

}
 2002280:	e037883a 	mov	sp,fp
 2002284:	dfc00117 	ldw	ra,4(sp)
 2002288:	df000017 	ldw	fp,0(sp)
 200228c:	dec00204 	addi	sp,sp,8
 2002290:	f800283a 	ret

02002294 <DispWave>:

__inline void DispWave(void)
{
 2002294:	defff404 	addi	sp,sp,-48
 2002298:	dfc00b15 	stw	ra,44(sp)
 200229c:	df000a15 	stw	fp,40(sp)
 20022a0:	dd000915 	stw	r20,36(sp)
 20022a4:	dcc00815 	stw	r19,32(sp)
 20022a8:	dc800715 	stw	r18,28(sp)
 20022ac:	dc400615 	stw	r17,24(sp)
 20022b0:	dc000515 	stw	r16,20(sp)
 20022b4:	df000504 	addi	fp,sp,20
	alt_u16 x;
	alt_u8 v1,v2;
	alt_u8 max=0;
 20022b8:	e03ffcc5 	stb	zero,-13(fp)
	alt_u8 min=0xff;
 20022bc:	00bfffc4 	movi	r2,-1
 20022c0:	e0bffc85 	stb	r2,-14(fp)
	alt_u16 timer_cnt=0;
 20022c4:	e03ffc0d 	sth	zero,-16(fp)
	v1=v2=0;
 20022c8:	e03ffd05 	stb	zero,-12(fp)
 20022cc:	e0bffd03 	ldbu	r2,-12(fp)
 20022d0:	e0bffd45 	stb	r2,-11(fp)

	if(save_control & 0x04)
 20022d4:	d0a03683 	ldbu	r2,-32550(gp)
 20022d8:	10803fcc 	andi	r2,r2,255
 20022dc:	1080010c 	andi	r2,r2,4
 20022e0:	1005003a 	cmpeq	r2,r2,zero
 20022e4:	1000161e 	bne	r2,zero,2002340 <DispWave+0xac>
	{
		//ili9320_ShowString(100,50,110,12,12,"Ready",RED,WHITE);
		IOWR_ALTERA_AVALON_PIO_DATA(CNT_EN_BASE, 0x01);
 20022e8:	00c92804 	movi	r3,9376
 20022ec:	00800044 	movi	r2,1
 20022f0:	18800035 	stwio	r2,0(r3)
		IOWR_ALTERA_AVALON_PIO_DATA(CNT_EN_BASE, 0x00);
 20022f4:	00892804 	movi	r2,9376
 20022f8:	10000035 	stwio	zero,0(r2)
		//usleep(1);
		IOWR_ALTERA_AVALON_PIO_DATA(CNT_EN_BASE, 0x01);
 20022fc:	00c92804 	movi	r3,9376
 2002300:	00800044 	movi	r2,1
 2002304:	18800035 	stwio	r2,0(r3)
		//while(!IORD_ALTERA_AVALON_PIO_DATA(CNT_IRQ_BASE));
		for(timer_cnt=0;timer_cnt<=65535;timer_cnt++)
 2002308:	e03ffc0d 	sth	zero,-16(fp)
		if(IORD_ALTERA_AVALON_PIO_DATA(CNT_IRQ_BASE)==1) break;
 200230c:	00892404 	movi	r2,9360
 2002310:	10800037 	ldwio	r2,0(r2)
 2002314:	10800060 	cmpeqi	r2,r2,1
 2002318:	1000041e 	bne	r2,zero,200232c <DispWave+0x98>
		IOWR_ALTERA_AVALON_PIO_DATA(CNT_EN_BASE, 0x01);
		IOWR_ALTERA_AVALON_PIO_DATA(CNT_EN_BASE, 0x00);
		//usleep(1);
		IOWR_ALTERA_AVALON_PIO_DATA(CNT_EN_BASE, 0x01);
		//while(!IORD_ALTERA_AVALON_PIO_DATA(CNT_IRQ_BASE));
		for(timer_cnt=0;timer_cnt<=65535;timer_cnt++)
 200231c:	e0bffc0b 	ldhu	r2,-16(fp)
 2002320:	10800044 	addi	r2,r2,1
 2002324:	e0bffc0d 	sth	r2,-16(fp)
		if(IORD_ALTERA_AVALON_PIO_DATA(CNT_IRQ_BASE)==1) break;
		Save_data();
 2002328:	003ff806 	br	200230c <DispWave+0x78>
 200232c:	20010b40 	call	20010b4 <Save_data>
		save_control^=0x04;
 2002330:	d0a03683 	ldbu	r2,-32550(gp)
 2002334:	1080011c 	xori	r2,r2,4
 2002338:	d0a03685 	stb	r2,-32550(gp)
 200233c:	0000a506 	br	20025d4 <DispWave+0x340>
		//ili9320_ShowString(280,225,110,12,12,"T",WHITE,BLACK);
	}
	else
	if(save_control & 0x01)
 2002340:	d0a03683 	ldbu	r2,-32550(gp)
 2002344:	10803fcc 	andi	r2,r2,255
 2002348:	1080004c 	andi	r2,r2,1
 200234c:	10803fcc 	andi	r2,r2,255
 2002350:	1005003a 	cmpeq	r2,r2,zero
 2002354:	10003e1e 	bne	r2,zero,2002450 <DispWave+0x1bc>
	{
		//ili9320_ShowString(10,20,110,12,12,"Play",BLACK,WHITE);
		//usleep(5000);
		Play_data();
 2002358:	200119c0 	call	200119c <Play_data>
		for(x=0;x<=511;x++)
 200235c:	e03ffd8d 	sth	zero,-10(fp)
 2002360:	00003706 	br	2002440 <DispWave+0x1ac>
		{
			if(data_in[x]>max) max=data_in[x];
 2002364:	e0fffd8b 	ldhu	r3,-10(fp)
 2002368:	008080f4 	movhi	r2,515
 200236c:	10a10d04 	addi	r2,r2,-31692
 2002370:	10c5883a 	add	r2,r2,r3
 2002374:	10800003 	ldbu	r2,0(r2)
 2002378:	10c03fcc 	andi	r3,r2,255
 200237c:	e0bffcc3 	ldbu	r2,-13(fp)
 2002380:	10c0062e 	bgeu	r2,r3,200239c <DispWave+0x108>
 2002384:	e0fffd8b 	ldhu	r3,-10(fp)
 2002388:	008080f4 	movhi	r2,515
 200238c:	10a10d04 	addi	r2,r2,-31692
 2002390:	10c5883a 	add	r2,r2,r3
 2002394:	10800003 	ldbu	r2,0(r2)
 2002398:	e0bffcc5 	stb	r2,-13(fp)
			if(data_in[x]<min) min=data_in[x];
 200239c:	e0fffd8b 	ldhu	r3,-10(fp)
 20023a0:	008080f4 	movhi	r2,515
 20023a4:	10a10d04 	addi	r2,r2,-31692
 20023a8:	10c5883a 	add	r2,r2,r3
 20023ac:	10800003 	ldbu	r2,0(r2)
 20023b0:	10c03fcc 	andi	r3,r2,255
 20023b4:	e0bffc83 	ldbu	r2,-14(fp)
 20023b8:	1880062e 	bgeu	r3,r2,20023d4 <DispWave+0x140>
 20023bc:	e0fffd8b 	ldhu	r3,-10(fp)
 20023c0:	008080f4 	movhi	r2,515
 20023c4:	10a10d04 	addi	r2,r2,-31692
 20023c8:	10c5883a 	add	r2,r2,r3
 20023cc:	10800003 	ldbu	r2,0(r2)
 20023d0:	e0bffc85 	stb	r2,-14(fp)
			switch(x)
 20023d4:	e0bffd8b 	ldhu	r2,-10(fp)
 20023d8:	e0bfff15 	stw	r2,-4(fp)
 20023dc:	e0ffff17 	ldw	r3,-4(fp)
 20023e0:	18803fe0 	cmpeqi	r2,r3,255
 20023e4:	1000041e 	bne	r2,zero,20023f8 <DispWave+0x164>
 20023e8:	e0ffff17 	ldw	r3,-4(fp)
 20023ec:	18807fa0 	cmpeqi	r2,r3,510
 20023f0:	1000091e 	bne	r2,zero,2002418 <DispWave+0x184>
 20023f4:	00000f06 	br	2002434 <DispWave+0x1a0>
			{
				case 255:{v1=max-min;min=0xff;max=0;}break;
 20023f8:	e0fffcc3 	ldbu	r3,-13(fp)
 20023fc:	e0bffc83 	ldbu	r2,-14(fp)
 2002400:	1885c83a 	sub	r2,r3,r2
 2002404:	e0bffd45 	stb	r2,-11(fp)
 2002408:	00bfffc4 	movi	r2,-1
 200240c:	e0bffc85 	stb	r2,-14(fp)
 2002410:	e03ffcc5 	stb	zero,-13(fp)
 2002414:	00000706 	br	2002434 <DispWave+0x1a0>
				case 510:{v2=max-min;min=0xff;max=0;}break;
 2002418:	e0fffcc3 	ldbu	r3,-13(fp)
 200241c:	e0bffc83 	ldbu	r2,-14(fp)
 2002420:	1885c83a 	sub	r2,r3,r2
 2002424:	e0bffd05 	stb	r2,-12(fp)
 2002428:	00bfffc4 	movi	r2,-1
 200242c:	e0bffc85 	stb	r2,-14(fp)
 2002430:	e03ffcc5 	stb	zero,-13(fp)
	if(save_control & 0x01)
	{
		//ili9320_ShowString(10,20,110,12,12,"Play",BLACK,WHITE);
		//usleep(5000);
		Play_data();
		for(x=0;x<=511;x++)
 2002434:	e0bffd8b 	ldhu	r2,-10(fp)
 2002438:	10800044 	addi	r2,r2,1
 200243c:	e0bffd8d 	sth	r2,-10(fp)
 2002440:	e0bffd8b 	ldhu	r2,-10(fp)
 2002444:	10808030 	cmpltui	r2,r2,512
 2002448:	103fc61e 	bne	r2,zero,2002364 <DispWave+0xd0>
 200244c:	00006106 	br	20025d4 <DispWave+0x340>
			}
		}
	}
	else
	{
		for(timer_cnt=0;timer_cnt<=65535;timer_cnt++)
 2002450:	e03ffc0d 	sth	zero,-16(fp)
		if(IORD_ALTERA_AVALON_PIO_DATA(CNT_IRQ_BASE)==1) break;
 2002454:	00892404 	movi	r2,9360
 2002458:	10800037 	ldwio	r2,0(r2)
 200245c:	10800060 	cmpeqi	r2,r2,1
 2002460:	1000041e 	bne	r2,zero,2002474 <DispWave+0x1e0>
			}
		}
	}
	else
	{
		for(timer_cnt=0;timer_cnt<=65535;timer_cnt++)
 2002464:	e0bffc0b 	ldhu	r2,-16(fp)
 2002468:	10800044 	addi	r2,r2,1
 200246c:	e0bffc0d 	sth	r2,-16(fp)
		if(IORD_ALTERA_AVALON_PIO_DATA(CNT_IRQ_BASE)==1) break;
		for(x=0;x<=511;x++)
 2002470:	003ff806 	br	2002454 <DispWave+0x1c0>
 2002474:	e03ffd8d 	sth	zero,-10(fp)
 2002478:	00004206 	br	2002584 <DispWave+0x2f0>
		{
			data_in[x]=Read_RAM(x);
 200247c:	e13ffd8b 	ldhu	r4,-10(fp)
 2002480:	e0bffd8b 	ldhu	r2,-10(fp)
 2002484:	1085883a 	add	r2,r2,r2
 2002488:	1085883a 	add	r2,r2,r2
 200248c:	10840004 	addi	r2,r2,4096
 2002490:	10800037 	ldwio	r2,0(r2)
 2002494:	1007883a 	mov	r3,r2
 2002498:	008080f4 	movhi	r2,515
 200249c:	10a10d04 	addi	r2,r2,-31692
 20024a0:	1105883a 	add	r2,r2,r4
 20024a4:	10c00005 	stb	r3,0(r2)
			if(data_in[x]>max) max=data_in[x];
 20024a8:	e0fffd8b 	ldhu	r3,-10(fp)
 20024ac:	008080f4 	movhi	r2,515
 20024b0:	10a10d04 	addi	r2,r2,-31692
 20024b4:	10c5883a 	add	r2,r2,r3
 20024b8:	10800003 	ldbu	r2,0(r2)
 20024bc:	10c03fcc 	andi	r3,r2,255
 20024c0:	e0bffcc3 	ldbu	r2,-13(fp)
 20024c4:	10c0062e 	bgeu	r2,r3,20024e0 <DispWave+0x24c>
 20024c8:	e0fffd8b 	ldhu	r3,-10(fp)
 20024cc:	008080f4 	movhi	r2,515
 20024d0:	10a10d04 	addi	r2,r2,-31692
 20024d4:	10c5883a 	add	r2,r2,r3
 20024d8:	10800003 	ldbu	r2,0(r2)
 20024dc:	e0bffcc5 	stb	r2,-13(fp)
			if(data_in[x]<min) min=data_in[x];
 20024e0:	e0fffd8b 	ldhu	r3,-10(fp)
 20024e4:	008080f4 	movhi	r2,515
 20024e8:	10a10d04 	addi	r2,r2,-31692
 20024ec:	10c5883a 	add	r2,r2,r3
 20024f0:	10800003 	ldbu	r2,0(r2)
 20024f4:	10c03fcc 	andi	r3,r2,255
 20024f8:	e0bffc83 	ldbu	r2,-14(fp)
 20024fc:	1880062e 	bgeu	r3,r2,2002518 <DispWave+0x284>
 2002500:	e0fffd8b 	ldhu	r3,-10(fp)
 2002504:	008080f4 	movhi	r2,515
 2002508:	10a10d04 	addi	r2,r2,-31692
 200250c:	10c5883a 	add	r2,r2,r3
 2002510:	10800003 	ldbu	r2,0(r2)
 2002514:	e0bffc85 	stb	r2,-14(fp)
			switch(x)
 2002518:	e0bffd8b 	ldhu	r2,-10(fp)
 200251c:	e0bffe15 	stw	r2,-8(fp)
 2002520:	e0fffe17 	ldw	r3,-8(fp)
 2002524:	18803fe0 	cmpeqi	r2,r3,255
 2002528:	1000041e 	bne	r2,zero,200253c <DispWave+0x2a8>
 200252c:	e0fffe17 	ldw	r3,-8(fp)
 2002530:	18807fa0 	cmpeqi	r2,r3,510
 2002534:	1000091e 	bne	r2,zero,200255c <DispWave+0x2c8>
 2002538:	00000f06 	br	2002578 <DispWave+0x2e4>
			{
				case 255:{v1=max-min;min=0xff;max=0;}break;
 200253c:	e0fffcc3 	ldbu	r3,-13(fp)
 2002540:	e0bffc83 	ldbu	r2,-14(fp)
 2002544:	1885c83a 	sub	r2,r3,r2
 2002548:	e0bffd45 	stb	r2,-11(fp)
 200254c:	00bfffc4 	movi	r2,-1
 2002550:	e0bffc85 	stb	r2,-14(fp)
 2002554:	e03ffcc5 	stb	zero,-13(fp)
 2002558:	00000706 	br	2002578 <DispWave+0x2e4>
				case 510:{v2=max-min;min=0xff;max=0;}break;
 200255c:	e0fffcc3 	ldbu	r3,-13(fp)
 2002560:	e0bffc83 	ldbu	r2,-14(fp)
 2002564:	1885c83a 	sub	r2,r3,r2
 2002568:	e0bffd05 	stb	r2,-12(fp)
 200256c:	00bfffc4 	movi	r2,-1
 2002570:	e0bffc85 	stb	r2,-14(fp)
 2002574:	e03ffcc5 	stb	zero,-13(fp)
	}
	else
	{
		for(timer_cnt=0;timer_cnt<=65535;timer_cnt++)
		if(IORD_ALTERA_AVALON_PIO_DATA(CNT_IRQ_BASE)==1) break;
		for(x=0;x<=511;x++)
 2002578:	e0bffd8b 	ldhu	r2,-10(fp)
 200257c:	10800044 	addi	r2,r2,1
 2002580:	e0bffd8d 	sth	r2,-10(fp)
 2002584:	e0bffd8b 	ldhu	r2,-10(fp)
 2002588:	10808030 	cmpltui	r2,r2,512
 200258c:	103fbb1e 	bne	r2,zero,200247c <DispWave+0x1e8>
				default:break;
			}
		}


		IOWR_ALTERA_AVALON_PIO_DATA(CNT_EN_BASE, 0x01);
 2002590:	00c92804 	movi	r3,9376
 2002594:	00800044 	movi	r2,1
 2002598:	18800035 	stwio	r2,0(r3)
		IOWR_ALTERA_AVALON_PIO_DATA(CNT_EN_BASE, 0x00);
 200259c:	00892804 	movi	r2,9376
 20025a0:	10000035 	stwio	zero,0(r2)
		//usleep(100);
		IOWR_ALTERA_AVALON_PIO_DATA(CNT_EN_BASE, 0x01);
 20025a4:	00c92804 	movi	r3,9376
 20025a8:	00800044 	movi	r2,1
 20025ac:	18800035 	stwio	r2,0(r3)
		if(save_control & 0x02)
 20025b0:	d0a03683 	ldbu	r2,-32550(gp)
 20025b4:	10803fcc 	andi	r2,r2,255
 20025b8:	1080008c 	andi	r2,r2,2
 20025bc:	1005003a 	cmpeq	r2,r2,zero
 20025c0:	1000041e 	bne	r2,zero,20025d4 <DispWave+0x340>
		{
			//ili9320_ShowString(100,50,110,12,12,"Save ",RED,WHITE);
			//usleep(5000);
			//Flash_WriteData();
			Save_data();
 20025c4:	20010b40 	call	20010b4 <Save_data>
			//ili9320_ShowString(265,225,110,12,12,"S",WHITE,BLACK);
			save_control^=0x02;
 20025c8:	d0a03683 	ldbu	r2,-32550(gp)
 20025cc:	1080009c 	xori	r2,r2,2
 20025d0:	d0a03685 	stb	r2,-32550(gp)
		}
	}
	if(save_control & 0x10)
 20025d4:	d0a03683 	ldbu	r2,-32550(gp)
 20025d8:	10803fcc 	andi	r2,r2,255
 20025dc:	1080040c 	andi	r2,r2,16
 20025e0:	1005003a 	cmpeq	r2,r2,zero
 20025e4:	1000271e 	bne	r2,zero,2002684 <DispWave+0x3f0>
	{
		for(x=0; x<512; x++)
 20025e8:	e03ffd8d 	sth	zero,-10(fp)
 20025ec:	00001806 	br	2002650 <DispWave+0x3bc>
		{
			fft[x].imag=0;
 20025f0:	e0bffd8b 	ldhu	r2,-10(fp)
 20025f4:	00c080b4 	movhi	r3,514
 20025f8:	18dc0d04 	addi	r3,r3,28724
 20025fc:	100490fa 	slli	r2,r2,3
 2002600:	10c5883a 	add	r2,r2,r3
 2002604:	10800104 	addi	r2,r2,4
 2002608:	10000015 	stw	zero,0(r2)
			fft[x].real=data_in[x];
 200260c:	e43ffd8b 	ldhu	r16,-10(fp)
 2002610:	e0fffd8b 	ldhu	r3,-10(fp)
 2002614:	008080f4 	movhi	r2,515
 2002618:	10a10d04 	addi	r2,r2,-31692
 200261c:	10c5883a 	add	r2,r2,r3
 2002620:	10800003 	ldbu	r2,0(r2)
 2002624:	11003fcc 	andi	r4,r2,255
 2002628:	200cc9c0 	call	200cc9c <__floatunsisf>
 200262c:	1009883a 	mov	r4,r2
 2002630:	00c080b4 	movhi	r3,514
 2002634:	18dc0d04 	addi	r3,r3,28724
 2002638:	800490fa 	slli	r2,r16,3
 200263c:	10c5883a 	add	r2,r2,r3
 2002640:	11000015 	stw	r4,0(r2)
			save_control^=0x02;
		}
	}
	if(save_control & 0x10)
	{
		for(x=0; x<512; x++)
 2002644:	e0bffd8b 	ldhu	r2,-10(fp)
 2002648:	10800044 	addi	r2,r2,1
 200264c:	e0bffd8d 	sth	r2,-10(fp)
 2002650:	e0bffd8b 	ldhu	r2,-10(fp)
 2002654:	10808030 	cmpltui	r2,r2,512
 2002658:	103fe51e 	bne	r2,zero,20025f0 <DispWave+0x35c>
		{
			fft[x].imag=0;
			fft[x].real=data_in[x];
		}
		FFT(fft,512);
 200265c:	010080b4 	movhi	r4,514
 2002660:	211c0d04 	addi	r4,r4,28724
 2002664:	01408004 	movi	r5,512
 2002668:	20002d00 	call	20002d0 <FFT>
		FFTpowerMag(fft,lBUFMAG,256);
 200266c:	010080b4 	movhi	r4,514
 2002670:	211c0d04 	addi	r4,r4,28724
 2002674:	014080f4 	movhi	r5,515
 2002678:	29600d04 	addi	r5,r5,-32716
 200267c:	01804004 	movi	r6,256
 2002680:	20007e00 	call	20007e0 <FFTpowerMag>
	}
	for(x=10;x<309;x++)
 2002684:	00800284 	movi	r2,10
 2002688:	e0bffd8d 	sth	r2,-10(fp)
 200268c:	00014106 	br	2002b94 <DispWave+0x900>
	{
		sx(x);
 2002690:	e13ffd8b 	ldhu	r4,-10(fp)
 2002694:	2000e680 	call	2000e68 <sx>
		if(x==308)sx(309);
 2002698:	e0bffd8b 	ldhu	r2,-10(fp)
 200269c:	10804d18 	cmpnei	r2,r2,308
 20026a0:	1000021e 	bne	r2,zero,20026ac <DispWave+0x418>
 20026a4:	01004d44 	movi	r4,309
 20026a8:	2000e680 	call	2000e68 <sx>
		ili9320_DrawLine2(x,239-0.78125*data_in[x-8+X0]-(0.78125*127-Y0+40),x+1,239-0.78125*data_in[x-7+X0]-(0.78125*127-Y0+40),YELLOW);
 20026ac:	e4bffd8b 	ldhu	r18,-10(fp)
 20026b0:	e0fffd8b 	ldhu	r3,-10(fp)
 20026b4:	d0a03603 	ldbu	r2,-32552(gp)
 20026b8:	10803fcc 	andi	r2,r2,255
 20026bc:	1885883a 	add	r2,r3,r2
 20026c0:	10fffe04 	addi	r3,r2,-8
 20026c4:	008080f4 	movhi	r2,515
 20026c8:	10a10d04 	addi	r2,r2,-31692
 20026cc:	10c5883a 	add	r2,r2,r3
 20026d0:	10800003 	ldbu	r2,0(r2)
 20026d4:	11003fcc 	andi	r4,r2,255
 20026d8:	200dbac0 	call	200dbac <__floatsidf>
 20026dc:	100b883a 	mov	r5,r2
 20026e0:	180d883a 	mov	r6,r3
 20026e4:	2809883a 	mov	r4,r5
 20026e8:	300b883a 	mov	r5,r6
 20026ec:	000d883a 	mov	r6,zero
 20026f0:	01effa74 	movhi	r7,49129
 20026f4:	200d2600 	call	200d260 <__muldf3>
 20026f8:	1009883a 	mov	r4,r2
 20026fc:	180b883a 	mov	r5,r3
 2002700:	2005883a 	mov	r2,r4
 2002704:	2807883a 	mov	r3,r5
 2002708:	1009883a 	mov	r4,r2
 200270c:	180b883a 	mov	r5,r3
 2002710:	000d883a 	mov	r6,zero
 2002714:	01d01bb4 	movhi	r7,16494
 2002718:	39f80004 	addi	r7,r7,-8192
 200271c:	200d1ec0 	call	200d1ec <__adddf3>
 2002720:	1009883a 	mov	r4,r2
 2002724:	180b883a 	mov	r5,r3
 2002728:	2021883a 	mov	r16,r4
 200272c:	2823883a 	mov	r17,r5
 2002730:	d0a00003 	ldbu	r2,-32768(gp)
 2002734:	11003fcc 	andi	r4,r2,255
 2002738:	200dbac0 	call	200dbac <__floatsidf>
 200273c:	100f883a 	mov	r7,r2
 2002740:	1811883a 	mov	r8,r3
 2002744:	0009883a 	mov	r4,zero
 2002748:	01501674 	movhi	r5,16473
 200274c:	29738004 	addi	r5,r5,-12800
 2002750:	380d883a 	mov	r6,r7
 2002754:	400f883a 	mov	r7,r8
 2002758:	200d16c0 	call	200d16c <__subdf3>
 200275c:	1009883a 	mov	r4,r2
 2002760:	180b883a 	mov	r5,r3
 2002764:	2005883a 	mov	r2,r4
 2002768:	2807883a 	mov	r3,r5
 200276c:	1009883a 	mov	r4,r2
 2002770:	180b883a 	mov	r5,r3
 2002774:	000d883a 	mov	r6,zero
 2002778:	01d01134 	movhi	r7,16452
 200277c:	200d1ec0 	call	200d1ec <__adddf3>
 2002780:	1009883a 	mov	r4,r2
 2002784:	180b883a 	mov	r5,r3
 2002788:	2005883a 	mov	r2,r4
 200278c:	2807883a 	mov	r3,r5
 2002790:	8009883a 	mov	r4,r16
 2002794:	880b883a 	mov	r5,r17
 2002798:	100d883a 	mov	r6,r2
 200279c:	180f883a 	mov	r7,r3
 20027a0:	200d16c0 	call	200d16c <__subdf3>
 20027a4:	1009883a 	mov	r4,r2
 20027a8:	180b883a 	mov	r5,r3
 20027ac:	2005883a 	mov	r2,r4
 20027b0:	2807883a 	mov	r3,r5
 20027b4:	1009883a 	mov	r4,r2
 20027b8:	180b883a 	mov	r5,r3
 20027bc:	200dca40 	call	200dca4 <__fixdfsi>
 20027c0:	14ffffcc 	andi	r19,r2,65535
 20027c4:	9ce0001c 	xori	r19,r19,32768
 20027c8:	9ce00004 	addi	r19,r19,-32768
 20027cc:	e0bffd8b 	ldhu	r2,-10(fp)
 20027d0:	10800044 	addi	r2,r2,1
 20027d4:	153fffcc 	andi	r20,r2,65535
 20027d8:	e0fffd8b 	ldhu	r3,-10(fp)
 20027dc:	d0a03603 	ldbu	r2,-32552(gp)
 20027e0:	10803fcc 	andi	r2,r2,255
 20027e4:	1885883a 	add	r2,r3,r2
 20027e8:	10fffe44 	addi	r3,r2,-7
 20027ec:	008080f4 	movhi	r2,515
 20027f0:	10a10d04 	addi	r2,r2,-31692
 20027f4:	10c5883a 	add	r2,r2,r3
 20027f8:	10800003 	ldbu	r2,0(r2)
 20027fc:	11003fcc 	andi	r4,r2,255
 2002800:	200dbac0 	call	200dbac <__floatsidf>
 2002804:	100b883a 	mov	r5,r2
 2002808:	180d883a 	mov	r6,r3
 200280c:	2809883a 	mov	r4,r5
 2002810:	300b883a 	mov	r5,r6
 2002814:	000d883a 	mov	r6,zero
 2002818:	01effa74 	movhi	r7,49129
 200281c:	200d2600 	call	200d260 <__muldf3>
 2002820:	1009883a 	mov	r4,r2
 2002824:	180b883a 	mov	r5,r3
 2002828:	2005883a 	mov	r2,r4
 200282c:	2807883a 	mov	r3,r5
 2002830:	1009883a 	mov	r4,r2
 2002834:	180b883a 	mov	r5,r3
 2002838:	000d883a 	mov	r6,zero
 200283c:	01d01bb4 	movhi	r7,16494
 2002840:	39f80004 	addi	r7,r7,-8192
 2002844:	200d1ec0 	call	200d1ec <__adddf3>
 2002848:	1009883a 	mov	r4,r2
 200284c:	180b883a 	mov	r5,r3
 2002850:	2021883a 	mov	r16,r4
 2002854:	2823883a 	mov	r17,r5
 2002858:	d0a00003 	ldbu	r2,-32768(gp)
 200285c:	11003fcc 	andi	r4,r2,255
 2002860:	200dbac0 	call	200dbac <__floatsidf>
 2002864:	100f883a 	mov	r7,r2
 2002868:	1811883a 	mov	r8,r3
 200286c:	0009883a 	mov	r4,zero
 2002870:	01501674 	movhi	r5,16473
 2002874:	29738004 	addi	r5,r5,-12800
 2002878:	380d883a 	mov	r6,r7
 200287c:	400f883a 	mov	r7,r8
 2002880:	200d16c0 	call	200d16c <__subdf3>
 2002884:	1009883a 	mov	r4,r2
 2002888:	180b883a 	mov	r5,r3
 200288c:	2005883a 	mov	r2,r4
 2002890:	2807883a 	mov	r3,r5
 2002894:	1009883a 	mov	r4,r2
 2002898:	180b883a 	mov	r5,r3
 200289c:	000d883a 	mov	r6,zero
 20028a0:	01d01134 	movhi	r7,16452
 20028a4:	200d1ec0 	call	200d1ec <__adddf3>
 20028a8:	1009883a 	mov	r4,r2
 20028ac:	180b883a 	mov	r5,r3
 20028b0:	2005883a 	mov	r2,r4
 20028b4:	2807883a 	mov	r3,r5
 20028b8:	8009883a 	mov	r4,r16
 20028bc:	880b883a 	mov	r5,r17
 20028c0:	100d883a 	mov	r6,r2
 20028c4:	180f883a 	mov	r7,r3
 20028c8:	200d16c0 	call	200d16c <__subdf3>
 20028cc:	1009883a 	mov	r4,r2
 20028d0:	180b883a 	mov	r5,r3
 20028d4:	2005883a 	mov	r2,r4
 20028d8:	2807883a 	mov	r3,r5
 20028dc:	1009883a 	mov	r4,r2
 20028e0:	180b883a 	mov	r5,r3
 20028e4:	200dca40 	call	200dca4 <__fixdfsi>
 20028e8:	11ffffcc 	andi	r7,r2,65535
 20028ec:	39e0001c 	xori	r7,r7,32768
 20028f0:	39e00004 	addi	r7,r7,-32768
 20028f4:	00bff814 	movui	r2,65504
 20028f8:	d8800015 	stw	r2,0(sp)
 20028fc:	9009883a 	mov	r4,r18
 2002900:	980b883a 	mov	r5,r19
 2002904:	a00d883a 	mov	r6,r20
 2002908:	200543c0 	call	200543c <ili9320_DrawLine2>
		if(save_control & 0x10)
 200290c:	d0a03683 	ldbu	r2,-32550(gp)
 2002910:	10803fcc 	andi	r2,r2,255
 2002914:	1080040c 	andi	r2,r2,16
 2002918:	1005003a 	cmpeq	r2,r2,zero
 200291c:	10009a1e 	bne	r2,zero,2002b88 <DispWave+0x8f4>
		{
			if(x>=35&&x<290)
 2002920:	e0bffd8b 	ldhu	r2,-10(fp)
 2002924:	108008f0 	cmpltui	r2,r2,35
 2002928:	1000971e 	bne	r2,zero,2002b88 <DispWave+0x8f4>
 200292c:	e0bffd8b 	ldhu	r2,-10(fp)
 2002930:	108048a8 	cmpgeui	r2,r2,290
 2002934:	1000941e 	bne	r2,zero,2002b88 <DispWave+0x8f4>
			ili9320_DrawLine2(x,239-0.78125*lBUFMAG[x-35]-(0.78125*127-Y0+40),x+1,239-0.78125*lBUFMAG[x-34]-(0.78125*127-Y0+40),RED);
 2002938:	e4bffd8b 	ldhu	r18,-10(fp)
 200293c:	e0bffd8b 	ldhu	r2,-10(fp)
 2002940:	10bff744 	addi	r2,r2,-35
 2002944:	00c080f4 	movhi	r3,515
 2002948:	18e00d04 	addi	r3,r3,-32716
 200294c:	1085883a 	add	r2,r2,r2
 2002950:	1085883a 	add	r2,r2,r2
 2002954:	10c5883a 	add	r2,r2,r3
 2002958:	11000017 	ldw	r4,0(r2)
 200295c:	200de280 	call	200de28 <__floatunsidf>
 2002960:	100b883a 	mov	r5,r2
 2002964:	180d883a 	mov	r6,r3
 2002968:	2809883a 	mov	r4,r5
 200296c:	300b883a 	mov	r5,r6
 2002970:	000d883a 	mov	r6,zero
 2002974:	01effa74 	movhi	r7,49129
 2002978:	200d2600 	call	200d260 <__muldf3>
 200297c:	1009883a 	mov	r4,r2
 2002980:	180b883a 	mov	r5,r3
 2002984:	2005883a 	mov	r2,r4
 2002988:	2807883a 	mov	r3,r5
 200298c:	1009883a 	mov	r4,r2
 2002990:	180b883a 	mov	r5,r3
 2002994:	000d883a 	mov	r6,zero
 2002998:	01d01bb4 	movhi	r7,16494
 200299c:	39f80004 	addi	r7,r7,-8192
 20029a0:	200d1ec0 	call	200d1ec <__adddf3>
 20029a4:	1009883a 	mov	r4,r2
 20029a8:	180b883a 	mov	r5,r3
 20029ac:	2021883a 	mov	r16,r4
 20029b0:	2823883a 	mov	r17,r5
 20029b4:	d0a00003 	ldbu	r2,-32768(gp)
 20029b8:	11003fcc 	andi	r4,r2,255
 20029bc:	200dbac0 	call	200dbac <__floatsidf>
 20029c0:	100f883a 	mov	r7,r2
 20029c4:	1811883a 	mov	r8,r3
 20029c8:	0009883a 	mov	r4,zero
 20029cc:	01501674 	movhi	r5,16473
 20029d0:	29738004 	addi	r5,r5,-12800
 20029d4:	380d883a 	mov	r6,r7
 20029d8:	400f883a 	mov	r7,r8
 20029dc:	200d16c0 	call	200d16c <__subdf3>
 20029e0:	1009883a 	mov	r4,r2
 20029e4:	180b883a 	mov	r5,r3
 20029e8:	2005883a 	mov	r2,r4
 20029ec:	2807883a 	mov	r3,r5
 20029f0:	1009883a 	mov	r4,r2
 20029f4:	180b883a 	mov	r5,r3
 20029f8:	000d883a 	mov	r6,zero
 20029fc:	01d01134 	movhi	r7,16452
 2002a00:	200d1ec0 	call	200d1ec <__adddf3>
 2002a04:	1009883a 	mov	r4,r2
 2002a08:	180b883a 	mov	r5,r3
 2002a0c:	2005883a 	mov	r2,r4
 2002a10:	2807883a 	mov	r3,r5
 2002a14:	8009883a 	mov	r4,r16
 2002a18:	880b883a 	mov	r5,r17
 2002a1c:	100d883a 	mov	r6,r2
 2002a20:	180f883a 	mov	r7,r3
 2002a24:	200d16c0 	call	200d16c <__subdf3>
 2002a28:	1009883a 	mov	r4,r2
 2002a2c:	180b883a 	mov	r5,r3
 2002a30:	2005883a 	mov	r2,r4
 2002a34:	2807883a 	mov	r3,r5
 2002a38:	1009883a 	mov	r4,r2
 2002a3c:	180b883a 	mov	r5,r3
 2002a40:	200dca40 	call	200dca4 <__fixdfsi>
 2002a44:	14ffffcc 	andi	r19,r2,65535
 2002a48:	9ce0001c 	xori	r19,r19,32768
 2002a4c:	9ce00004 	addi	r19,r19,-32768
 2002a50:	e0bffd8b 	ldhu	r2,-10(fp)
 2002a54:	10800044 	addi	r2,r2,1
 2002a58:	153fffcc 	andi	r20,r2,65535
 2002a5c:	e0bffd8b 	ldhu	r2,-10(fp)
 2002a60:	10bff784 	addi	r2,r2,-34
 2002a64:	00c080f4 	movhi	r3,515
 2002a68:	18e00d04 	addi	r3,r3,-32716
 2002a6c:	1085883a 	add	r2,r2,r2
 2002a70:	1085883a 	add	r2,r2,r2
 2002a74:	10c5883a 	add	r2,r2,r3
 2002a78:	11000017 	ldw	r4,0(r2)
 2002a7c:	200de280 	call	200de28 <__floatunsidf>
 2002a80:	100b883a 	mov	r5,r2
 2002a84:	180d883a 	mov	r6,r3
 2002a88:	2809883a 	mov	r4,r5
 2002a8c:	300b883a 	mov	r5,r6
 2002a90:	000d883a 	mov	r6,zero
 2002a94:	01effa74 	movhi	r7,49129
 2002a98:	200d2600 	call	200d260 <__muldf3>
 2002a9c:	1009883a 	mov	r4,r2
 2002aa0:	180b883a 	mov	r5,r3
 2002aa4:	2005883a 	mov	r2,r4
 2002aa8:	2807883a 	mov	r3,r5
 2002aac:	1009883a 	mov	r4,r2
 2002ab0:	180b883a 	mov	r5,r3
 2002ab4:	000d883a 	mov	r6,zero
 2002ab8:	01d01bb4 	movhi	r7,16494
 2002abc:	39f80004 	addi	r7,r7,-8192
 2002ac0:	200d1ec0 	call	200d1ec <__adddf3>
 2002ac4:	1009883a 	mov	r4,r2
 2002ac8:	180b883a 	mov	r5,r3
 2002acc:	2021883a 	mov	r16,r4
 2002ad0:	2823883a 	mov	r17,r5
 2002ad4:	d0a00003 	ldbu	r2,-32768(gp)
 2002ad8:	11003fcc 	andi	r4,r2,255
 2002adc:	200dbac0 	call	200dbac <__floatsidf>
 2002ae0:	100f883a 	mov	r7,r2
 2002ae4:	1811883a 	mov	r8,r3
 2002ae8:	0009883a 	mov	r4,zero
 2002aec:	01501674 	movhi	r5,16473
 2002af0:	29738004 	addi	r5,r5,-12800
 2002af4:	380d883a 	mov	r6,r7
 2002af8:	400f883a 	mov	r7,r8
 2002afc:	200d16c0 	call	200d16c <__subdf3>
 2002b00:	1009883a 	mov	r4,r2
 2002b04:	180b883a 	mov	r5,r3
 2002b08:	2005883a 	mov	r2,r4
 2002b0c:	2807883a 	mov	r3,r5
 2002b10:	1009883a 	mov	r4,r2
 2002b14:	180b883a 	mov	r5,r3
 2002b18:	000d883a 	mov	r6,zero
 2002b1c:	01d01134 	movhi	r7,16452
 2002b20:	200d1ec0 	call	200d1ec <__adddf3>
 2002b24:	1009883a 	mov	r4,r2
 2002b28:	180b883a 	mov	r5,r3
 2002b2c:	2005883a 	mov	r2,r4
 2002b30:	2807883a 	mov	r3,r5
 2002b34:	8009883a 	mov	r4,r16
 2002b38:	880b883a 	mov	r5,r17
 2002b3c:	100d883a 	mov	r6,r2
 2002b40:	180f883a 	mov	r7,r3
 2002b44:	200d16c0 	call	200d16c <__subdf3>
 2002b48:	1009883a 	mov	r4,r2
 2002b4c:	180b883a 	mov	r5,r3
 2002b50:	2005883a 	mov	r2,r4
 2002b54:	2807883a 	mov	r3,r5
 2002b58:	1009883a 	mov	r4,r2
 2002b5c:	180b883a 	mov	r5,r3
 2002b60:	200dca40 	call	200dca4 <__fixdfsi>
 2002b64:	11ffffcc 	andi	r7,r2,65535
 2002b68:	39e0001c 	xori	r7,r7,32768
 2002b6c:	39e00004 	addi	r7,r7,-32768
 2002b70:	00be0014 	movui	r2,63488
 2002b74:	d8800015 	stw	r2,0(sp)
 2002b78:	9009883a 	mov	r4,r18
 2002b7c:	980b883a 	mov	r5,r19
 2002b80:	a00d883a 	mov	r6,r20
 2002b84:	200543c0 	call	200543c <ili9320_DrawLine2>
			fft[x].real=data_in[x];
		}
		FFT(fft,512);
		FFTpowerMag(fft,lBUFMAG,256);
	}
	for(x=10;x<309;x++)
 2002b88:	e0bffd8b 	ldhu	r2,-10(fp)
 2002b8c:	10800044 	addi	r2,r2,1
 2002b90:	e0bffd8d 	sth	r2,-10(fp)
 2002b94:	e0bffd8b 	ldhu	r2,-10(fp)
 2002b98:	10804d70 	cmpltui	r2,r2,309
 2002b9c:	103ebc1e 	bne	r2,zero,2002690 <DispWave+0x3fc>
/*	for(x=310;x>10;x--)
	{
		sx(x);
		ili9320_DrawLine2(x,239-0.78125*data_in[311-x+X0]-(0.78125*127-Y0+40),x+1,239-0.78125*data_in[312-x+X0]-(0.78125*127-Y0+40),YELLOW);
	}*/
	Vpp=v1+v2;
 2002ba0:	e0fffd43 	ldbu	r3,-11(fp)
 2002ba4:	e0bffd03 	ldbu	r2,-12(fp)
 2002ba8:	1885883a 	add	r2,r3,r2
 2002bac:	d0a0370d 	sth	r2,-32548(gp)
	Vpp_printf();
 2002bb0:	20013a80 	call	20013a8 <Vpp_printf>
}
 2002bb4:	e037883a 	mov	sp,fp
 2002bb8:	dfc00617 	ldw	ra,24(sp)
 2002bbc:	df000517 	ldw	fp,20(sp)
 2002bc0:	dd000417 	ldw	r20,16(sp)
 2002bc4:	dcc00317 	ldw	r19,12(sp)
 2002bc8:	dc800217 	ldw	r18,8(sp)
 2002bcc:	dc400117 	ldw	r17,4(sp)
 2002bd0:	dc000017 	ldw	r16,0(sp)
 2002bd4:	dec00704 	addi	sp,sp,28
 2002bd8:	f800283a 	ret

02002bdc <WriteFreq>:
double Freq=1000;
float Phasew=0;
alt_u8 DDSn=0;

void WriteFreq(double n)//2^48=281474976710656;
{
 2002bdc:	defffa04 	addi	sp,sp,-24
 2002be0:	dfc00515 	stw	ra,20(sp)
 2002be4:	df000415 	stw	fp,16(sp)
 2002be8:	df000404 	addi	fp,sp,16
 2002bec:	e13ffe15 	stw	r4,-8(fp)
 2002bf0:	e17fff15 	stw	r5,-4(fp)
	alt_u64 K;
	K=n*1759218.6044416;
 2002bf4:	e13ffe17 	ldw	r4,-8(fp)
 2002bf8:	e17fff17 	ldw	r5,-4(fp)
 2002bfc:	01a6af74 	movhi	r6,39613
 2002c00:	31abd204 	addi	r6,r6,-20664
 2002c04:	01d04ef4 	movhi	r7,16699
 2002c08:	39f5fc84 	addi	r7,r7,-10254
 2002c0c:	200d2600 	call	200d260 <__muldf3>
 2002c10:	1009883a 	mov	r4,r2
 2002c14:	180b883a 	mov	r5,r3
 2002c18:	2005883a 	mov	r2,r4
 2002c1c:	2807883a 	mov	r3,r5
 2002c20:	1009883a 	mov	r4,r2
 2002c24:	180b883a 	mov	r5,r3
 2002c28:	200c4740 	call	200c474 <__fixunsdfdi>
 2002c2c:	1009883a 	mov	r4,r2
 2002c30:	180b883a 	mov	r5,r3
 2002c34:	e13ffc15 	stw	r4,-16(fp)
 2002c38:	e17ffd15 	stw	r5,-12(fp)
	FREQW_L((alt_u32) K);
 2002c3c:	e0bffc17 	ldw	r2,-16(fp)
 2002c40:	1007883a 	mov	r3,r2
 2002c44:	00891404 	movi	r2,9296
 2002c48:	10c00035 	stwio	r3,0(r2)
	FREQW_H((alt_u32)(K>> 32 ));
 2002c4c:	e13ffd17 	ldw	r4,-12(fp)
 2002c50:	2004d83a 	srl	r2,r4,zero
 2002c54:	0007883a 	mov	r3,zero
 2002c58:	1007883a 	mov	r3,r2
 2002c5c:	00891504 	movi	r2,9300
 2002c60:	10c00035 	stwio	r3,0(r2)
}
 2002c64:	e037883a 	mov	sp,fp
 2002c68:	dfc00117 	ldw	ra,4(sp)
 2002c6c:	df000017 	ldw	fp,0(sp)
 2002c70:	dec00204 	addi	sp,sp,8
 2002c74:	f800283a 	ret

02002c78 <WritePhasew>:

void WritePhasew(float n)
{
 2002c78:	defffb04 	addi	sp,sp,-20
 2002c7c:	dfc00415 	stw	ra,16(sp)
 2002c80:	df000315 	stw	fp,12(sp)
 2002c84:	df000304 	addi	fp,sp,12
 2002c88:	e13fff15 	stw	r4,-4(fp)
	double P;
	P=n*1.40625f;
 2002c8c:	e13fff17 	ldw	r4,-4(fp)
 2002c90:	014fed34 	movhi	r5,16308
 2002c94:	200c7e80 	call	200c7e8 <__mulsf3>
 2002c98:	1009883a 	mov	r4,r2
 2002c9c:	200cc480 	call	200cc48 <__extendsfdf2>
 2002ca0:	1009883a 	mov	r4,r2
 2002ca4:	180b883a 	mov	r5,r3
 2002ca8:	e13ffd15 	stw	r4,-12(fp)
 2002cac:	e17ffe15 	stw	r5,-8(fp)
	PHASEW((alt_u32) P);
 2002cb0:	e13ffd17 	ldw	r4,-12(fp)
 2002cb4:	e17ffe17 	ldw	r5,-8(fp)
 2002cb8:	200c3d00 	call	200c3d0 <__fixunsdfsi>
 2002cbc:	1007883a 	mov	r3,r2
 2002cc0:	00891604 	movi	r2,9304
 2002cc4:	10c00035 	stwio	r3,0(r2)

}
 2002cc8:	e037883a 	mov	sp,fp
 2002ccc:	dfc00117 	ldw	ra,4(sp)
 2002cd0:	df000017 	ldw	fp,0(sp)
 2002cd4:	dec00204 	addi	sp,sp,8
 2002cd8:	f800283a 	ret

02002cdc <DDS_OUT>:


//
void DDS_OUT(double n)
{
 2002cdc:	deffea04 	addi	sp,sp,-88
 2002ce0:	dfc01515 	stw	ra,84(sp)
 2002ce4:	df001415 	stw	fp,80(sp)
 2002ce8:	df001404 	addi	fp,sp,80
 2002cec:	e13ff615 	stw	r4,-40(fp)
 2002cf0:	e17ff715 	stw	r5,-36(fp)
   char d[14];
   double Fn;

   Fn=n;
 2002cf4:	e0bff617 	ldw	r2,-40(fp)
 2002cf8:	e0bff015 	stw	r2,-64(fp)
 2002cfc:	e0bff717 	ldw	r2,-36(fp)
 2002d00:	e0bff115 	stw	r2,-60(fp)
   WriteFreq(Fn);
 2002d04:	e13ff017 	ldw	r4,-64(fp)
 2002d08:	e17ff117 	ldw	r5,-60(fp)
 2002d0c:	2002bdc0 	call	2002bdc <WriteFreq>
   if(Fn>=0.000 && Fn<0.001)
 2002d10:	e03fff05 	stb	zero,-4(fp)
 2002d14:	e13ff017 	ldw	r4,-64(fp)
 2002d18:	e17ff117 	ldw	r5,-60(fp)
 2002d1c:	000d883a 	mov	r6,zero
 2002d20:	000f883a 	mov	r7,zero
 2002d24:	200da140 	call	200da14 <__gedf2>
 2002d28:	1004403a 	cmpge	r2,r2,zero
 2002d2c:	1000011e 	bne	r2,zero,2002d34 <DDS_OUT+0x58>
 2002d30:	00000206 	br	2002d3c <DDS_OUT+0x60>
 2002d34:	00800044 	movi	r2,1
 2002d38:	e0bfff05 	stb	r2,-4(fp)
 2002d3c:	e0ffff03 	ldbu	r3,-4(fp)
 2002d40:	1880005c 	xori	r2,r3,1
 2002d44:	10803fcc 	andi	r2,r2,255
 2002d48:	1004c03a 	cmpne	r2,r2,zero
 2002d4c:	1000231e 	bne	r2,zero,2002ddc <DDS_OUT+0x100>
 2002d50:	e03ffe05 	stb	zero,-8(fp)
 2002d54:	e13ff017 	ldw	r4,-64(fp)
 2002d58:	e17ff117 	ldw	r5,-60(fp)
 2002d5c:	01b4bcb4 	movhi	r6,54002
 2002d60:	31aa7f04 	addi	r6,r6,-22020
 2002d64:	01cfd434 	movhi	r7,16208
 2002d68:	39d89344 	addi	r7,r7,25165
 2002d6c:	200da9c0 	call	200da9c <__ltdf2>
 2002d70:	1004803a 	cmplt	r2,r2,zero
 2002d74:	1000011e 	bne	r2,zero,2002d7c <DDS_OUT+0xa0>
 2002d78:	00000206 	br	2002d84 <DDS_OUT+0xa8>
 2002d7c:	00800044 	movi	r2,1
 2002d80:	e0bffe05 	stb	r2,-8(fp)
 2002d84:	e0fffe03 	ldbu	r3,-8(fp)
 2002d88:	1880005c 	xori	r2,r3,1
 2002d8c:	10803fcc 	andi	r2,r2,255
 2002d90:	1004c03a 	cmpne	r2,r2,zero
 2002d94:	1000111e 	bne	r2,zero,2002ddc <DDS_OUT+0x100>
   	{
	   Fn=Fn*1000000;
 2002d98:	e13ff017 	ldw	r4,-64(fp)
 2002d9c:	e17ff117 	ldw	r5,-60(fp)
 2002da0:	000d883a 	mov	r6,zero
 2002da4:	01d04bf4 	movhi	r7,16687
 2002da8:	39e12004 	addi	r7,r7,-31616
 2002dac:	200d2600 	call	200d260 <__muldf3>
 2002db0:	1009883a 	mov	r4,r2
 2002db4:	180b883a 	mov	r5,r3
 2002db8:	e13ff015 	stw	r4,-64(fp)
 2002dbc:	e17ff115 	stw	r5,-60(fp)
   		sprintf(d,"%10.6fuHz",(double)Fn);
 2002dc0:	e13ff204 	addi	r4,fp,-56
 2002dc4:	014080b4 	movhi	r5,514
 2002dc8:	294ee704 	addi	r5,r5,15260
 2002dcc:	e1bff017 	ldw	r6,-64(fp)
 2002dd0:	e1fff117 	ldw	r7,-60(fp)
 2002dd4:	200ec680 	call	200ec68 <sprintf>
   char d[14];
   double Fn;

   Fn=n;
   WriteFreq(Fn);
   if(Fn>=0.000 && Fn<0.001)
 2002dd8:	0000a706 	br	2003078 <DDS_OUT+0x39c>
   	{
	   Fn=Fn*1000000;
   		sprintf(d,"%10.6fuHz",(double)Fn);
   	}
   else if(Fn>=0.001 && Fn<1)
 2002ddc:	e03ffd05 	stb	zero,-12(fp)
 2002de0:	e13ff017 	ldw	r4,-64(fp)
 2002de4:	e17ff117 	ldw	r5,-60(fp)
 2002de8:	01b4bcb4 	movhi	r6,54002
 2002dec:	31aa7f04 	addi	r6,r6,-22020
 2002df0:	01cfd434 	movhi	r7,16208
 2002df4:	39d89344 	addi	r7,r7,25165
 2002df8:	200da140 	call	200da14 <__gedf2>
 2002dfc:	1004403a 	cmpge	r2,r2,zero
 2002e00:	1000011e 	bne	r2,zero,2002e08 <DDS_OUT+0x12c>
 2002e04:	00000206 	br	2002e10 <DDS_OUT+0x134>
 2002e08:	00800044 	movi	r2,1
 2002e0c:	e0bffd05 	stb	r2,-12(fp)
 2002e10:	e0fffd03 	ldbu	r3,-12(fp)
 2002e14:	1880005c 	xori	r2,r3,1
 2002e18:	10803fcc 	andi	r2,r2,255
 2002e1c:	1004c03a 	cmpne	r2,r2,zero
 2002e20:	1000211e 	bne	r2,zero,2002ea8 <DDS_OUT+0x1cc>
 2002e24:	e03ffc05 	stb	zero,-16(fp)
 2002e28:	e13ff017 	ldw	r4,-64(fp)
 2002e2c:	e17ff117 	ldw	r5,-60(fp)
 2002e30:	000d883a 	mov	r6,zero
 2002e34:	01cffc34 	movhi	r7,16368
 2002e38:	200da9c0 	call	200da9c <__ltdf2>
 2002e3c:	1004803a 	cmplt	r2,r2,zero
 2002e40:	1000011e 	bne	r2,zero,2002e48 <DDS_OUT+0x16c>
 2002e44:	00000206 	br	2002e50 <DDS_OUT+0x174>
 2002e48:	00800044 	movi	r2,1
 2002e4c:	e0bffc05 	stb	r2,-16(fp)
 2002e50:	e0fffc03 	ldbu	r3,-16(fp)
 2002e54:	1880005c 	xori	r2,r3,1
 2002e58:	10803fcc 	andi	r2,r2,255
 2002e5c:	1004c03a 	cmpne	r2,r2,zero
 2002e60:	1000111e 	bne	r2,zero,2002ea8 <DDS_OUT+0x1cc>
   	{
	   Fn=Fn*1000;
 2002e64:	e13ff017 	ldw	r4,-64(fp)
 2002e68:	e17ff117 	ldw	r5,-60(fp)
 2002e6c:	000d883a 	mov	r6,zero
 2002e70:	01d023f4 	movhi	r7,16527
 2002e74:	39d00004 	addi	r7,r7,16384
 2002e78:	200d2600 	call	200d260 <__muldf3>
 2002e7c:	1009883a 	mov	r4,r2
 2002e80:	180b883a 	mov	r5,r3
 2002e84:	e13ff015 	stw	r4,-64(fp)
 2002e88:	e17ff115 	stw	r5,-60(fp)
   		sprintf(d,"%10.6fmHz",(double)Fn);
 2002e8c:	e13ff204 	addi	r4,fp,-56
 2002e90:	014080b4 	movhi	r5,514
 2002e94:	294eea04 	addi	r5,r5,15272
 2002e98:	e1bff017 	ldw	r6,-64(fp)
 2002e9c:	e1fff117 	ldw	r7,-60(fp)
 2002ea0:	200ec680 	call	200ec68 <sprintf>
   if(Fn>=0.000 && Fn<0.001)
   	{
	   Fn=Fn*1000000;
   		sprintf(d,"%10.6fuHz",(double)Fn);
   	}
   else if(Fn>=0.001 && Fn<1)
 2002ea4:	00007406 	br	2003078 <DDS_OUT+0x39c>
   	{
	   Fn=Fn*1000;
   		sprintf(d,"%10.6fmHz",(double)Fn);
   	}
   	else if(Fn>=1 && Fn<1000)
 2002ea8:	e03ffb05 	stb	zero,-20(fp)
 2002eac:	e13ff017 	ldw	r4,-64(fp)
 2002eb0:	e17ff117 	ldw	r5,-60(fp)
 2002eb4:	000d883a 	mov	r6,zero
 2002eb8:	01cffc34 	movhi	r7,16368
 2002ebc:	200da140 	call	200da14 <__gedf2>
 2002ec0:	1004403a 	cmpge	r2,r2,zero
 2002ec4:	1000011e 	bne	r2,zero,2002ecc <DDS_OUT+0x1f0>
 2002ec8:	00000206 	br	2002ed4 <DDS_OUT+0x1f8>
 2002ecc:	00800044 	movi	r2,1
 2002ed0:	e0bffb05 	stb	r2,-20(fp)
 2002ed4:	e0fffb03 	ldbu	r3,-20(fp)
 2002ed8:	1880005c 	xori	r2,r3,1
 2002edc:	10803fcc 	andi	r2,r2,255
 2002ee0:	1004c03a 	cmpne	r2,r2,zero
 2002ee4:	1000181e 	bne	r2,zero,2002f48 <DDS_OUT+0x26c>
 2002ee8:	e03ffa05 	stb	zero,-24(fp)
 2002eec:	e13ff017 	ldw	r4,-64(fp)
 2002ef0:	e17ff117 	ldw	r5,-60(fp)
 2002ef4:	000d883a 	mov	r6,zero
 2002ef8:	01d023f4 	movhi	r7,16527
 2002efc:	39d00004 	addi	r7,r7,16384
 2002f00:	200da9c0 	call	200da9c <__ltdf2>
 2002f04:	1004803a 	cmplt	r2,r2,zero
 2002f08:	1000011e 	bne	r2,zero,2002f10 <DDS_OUT+0x234>
 2002f0c:	00000206 	br	2002f18 <DDS_OUT+0x23c>
 2002f10:	00800044 	movi	r2,1
 2002f14:	e0bffa05 	stb	r2,-24(fp)
 2002f18:	e0fffa03 	ldbu	r3,-24(fp)
 2002f1c:	1880005c 	xori	r2,r3,1
 2002f20:	10803fcc 	andi	r2,r2,255
 2002f24:	1004c03a 	cmpne	r2,r2,zero
 2002f28:	1000071e 	bne	r2,zero,2002f48 <DDS_OUT+0x26c>
   		{
   			sprintf(d,"%10.6fHz ",(double)Fn);
 2002f2c:	e13ff204 	addi	r4,fp,-56
 2002f30:	014080b4 	movhi	r5,514
 2002f34:	294eed04 	addi	r5,r5,15284
 2002f38:	e1bff017 	ldw	r6,-64(fp)
 2002f3c:	e1fff117 	ldw	r7,-60(fp)
 2002f40:	200ec680 	call	200ec68 <sprintf>
   else if(Fn>=0.001 && Fn<1)
   	{
	   Fn=Fn*1000;
   		sprintf(d,"%10.6fmHz",(double)Fn);
   	}
   	else if(Fn>=1 && Fn<1000)
 2002f44:	00004c06 	br	2003078 <DDS_OUT+0x39c>
   		{
   			sprintf(d,"%10.6fHz ",(double)Fn);

   		}
   	else if(Fn>=1000 && Fn<1000000)
 2002f48:	e03ff905 	stb	zero,-28(fp)
 2002f4c:	e13ff017 	ldw	r4,-64(fp)
 2002f50:	e17ff117 	ldw	r5,-60(fp)
 2002f54:	000d883a 	mov	r6,zero
 2002f58:	01d023f4 	movhi	r7,16527
 2002f5c:	39d00004 	addi	r7,r7,16384
 2002f60:	200da140 	call	200da14 <__gedf2>
 2002f64:	1004403a 	cmpge	r2,r2,zero
 2002f68:	1000011e 	bne	r2,zero,2002f70 <DDS_OUT+0x294>
 2002f6c:	00000206 	br	2002f78 <DDS_OUT+0x29c>
 2002f70:	00800044 	movi	r2,1
 2002f74:	e0bff905 	stb	r2,-28(fp)
 2002f78:	e0fff903 	ldbu	r3,-28(fp)
 2002f7c:	1880005c 	xori	r2,r3,1
 2002f80:	10803fcc 	andi	r2,r2,255
 2002f84:	1004c03a 	cmpne	r2,r2,zero
 2002f88:	1000221e 	bne	r2,zero,2003014 <DDS_OUT+0x338>
 2002f8c:	e03ff805 	stb	zero,-32(fp)
 2002f90:	e13ff017 	ldw	r4,-64(fp)
 2002f94:	e17ff117 	ldw	r5,-60(fp)
 2002f98:	000d883a 	mov	r6,zero
 2002f9c:	01d04bf4 	movhi	r7,16687
 2002fa0:	39e12004 	addi	r7,r7,-31616
 2002fa4:	200da9c0 	call	200da9c <__ltdf2>
 2002fa8:	1004803a 	cmplt	r2,r2,zero
 2002fac:	1000011e 	bne	r2,zero,2002fb4 <DDS_OUT+0x2d8>
 2002fb0:	00000206 	br	2002fbc <DDS_OUT+0x2e0>
 2002fb4:	00800044 	movi	r2,1
 2002fb8:	e0bff805 	stb	r2,-32(fp)
 2002fbc:	e0fff803 	ldbu	r3,-32(fp)
 2002fc0:	1880005c 	xori	r2,r3,1
 2002fc4:	10803fcc 	andi	r2,r2,255
 2002fc8:	1004c03a 	cmpne	r2,r2,zero
 2002fcc:	1000111e 	bne	r2,zero,2003014 <DDS_OUT+0x338>
   		{
   			Fn=Fn/1000;
 2002fd0:	e13ff017 	ldw	r4,-64(fp)
 2002fd4:	e17ff117 	ldw	r5,-60(fp)
 2002fd8:	000d883a 	mov	r6,zero
 2002fdc:	01d023f4 	movhi	r7,16527
 2002fe0:	39d00004 	addi	r7,r7,16384
 2002fe4:	200d6240 	call	200d624 <__divdf3>
 2002fe8:	1009883a 	mov	r4,r2
 2002fec:	180b883a 	mov	r5,r3
 2002ff0:	e13ff015 	stw	r4,-64(fp)
 2002ff4:	e17ff115 	stw	r5,-60(fp)
   			sprintf(d,"%10.6fKHz",(double)Fn);
 2002ff8:	e13ff204 	addi	r4,fp,-56
 2002ffc:	014080b4 	movhi	r5,514
 2003000:	294ef004 	addi	r5,r5,15296
 2003004:	e1bff017 	ldw	r6,-64(fp)
 2003008:	e1fff117 	ldw	r7,-60(fp)
 200300c:	200ec680 	call	200ec68 <sprintf>
   	else if(Fn>=1 && Fn<1000)
   		{
   			sprintf(d,"%10.6fHz ",(double)Fn);

   		}
   	else if(Fn>=1000 && Fn<1000000)
 2003010:	00001906 	br	2003078 <DDS_OUT+0x39c>
   		{
   			Fn=Fn/1000;
   			sprintf(d,"%10.6fKHz",(double)Fn);
   		}
   	else if(Fn>=1000000)
 2003014:	e13ff017 	ldw	r4,-64(fp)
 2003018:	e17ff117 	ldw	r5,-60(fp)
 200301c:	000d883a 	mov	r6,zero
 2003020:	01d04bf4 	movhi	r7,16687
 2003024:	39e12004 	addi	r7,r7,-31616
 2003028:	200da140 	call	200da14 <__gedf2>
 200302c:	1004403a 	cmpge	r2,r2,zero
 2003030:	1000011e 	bne	r2,zero,2003038 <DDS_OUT+0x35c>
 2003034:	00001006 	br	2003078 <DDS_OUT+0x39c>
   		{
   			Fn=Fn/1000000;
 2003038:	e13ff017 	ldw	r4,-64(fp)
 200303c:	e17ff117 	ldw	r5,-60(fp)
 2003040:	000d883a 	mov	r6,zero
 2003044:	01d04bf4 	movhi	r7,16687
 2003048:	39e12004 	addi	r7,r7,-31616
 200304c:	200d6240 	call	200d624 <__divdf3>
 2003050:	1009883a 	mov	r4,r2
 2003054:	180b883a 	mov	r5,r3
 2003058:	e13ff015 	stw	r4,-64(fp)
 200305c:	e17ff115 	stw	r5,-60(fp)
   			sprintf(d,"%10.6fMHz",(double)Fn);
 2003060:	e13ff204 	addi	r4,fp,-56
 2003064:	014080b4 	movhi	r5,514
 2003068:	294ef304 	addi	r5,r5,15308
 200306c:	e1bff017 	ldw	r6,-64(fp)
 2003070:	e1fff117 	ldw	r7,-60(fp)
 2003074:	200ec680 	call	200ec68 <sprintf>

   		}

   ili9320_ShowString(220,225,120,12,12,d,YELLOW,BLACK);
 2003078:	e0bff204 	addi	r2,fp,-56
 200307c:	00c00304 	movi	r3,12
 2003080:	d8c00015 	stw	r3,0(sp)
 2003084:	d8800115 	stw	r2,4(sp)
 2003088:	00bff814 	movui	r2,65504
 200308c:	d8800215 	stw	r2,8(sp)
 2003090:	d8000315 	stw	zero,12(sp)
 2003094:	01003704 	movi	r4,220
 2003098:	01403844 	movi	r5,225
 200309c:	01801e04 	movi	r6,120
 20030a0:	01c00304 	movi	r7,12
 20030a4:	200614c0 	call	200614c <ili9320_ShowString>

}
 20030a8:	e037883a 	mov	sp,fp
 20030ac:	dfc00117 	ldw	ra,4(sp)
 20030b0:	df000017 	ldw	fp,0(sp)
 20030b4:	dec00204 	addi	sp,sp,8
 20030b8:	f800283a 	ret

020030bc <DDS_Phasew>:

void DDS_Phasew(float n)
{
 20030bc:	defffb04 	addi	sp,sp,-20
 20030c0:	dfc00415 	stw	ra,16(sp)
 20030c4:	df000315 	stw	fp,12(sp)
 20030c8:	df000304 	addi	fp,sp,12
 20030cc:	e13fff15 	stw	r4,-4(fp)
   char d[6];
   WritePhasew(n/10.0f);
 20030d0:	e13fff17 	ldw	r4,-4(fp)
 20030d4:	01504834 	movhi	r5,16672
 20030d8:	200c9c80 	call	200c9c8 <__divsf3>
 20030dc:	1009883a 	mov	r4,r2
 20030e0:	2002c780 	call	2002c78 <WritePhasew>
   d[0]=(alt_u32)n/1000+0x30;
 20030e4:	e13fff17 	ldw	r4,-4(fp)
 20030e8:	200c3600 	call	200c360 <__fixunssfsi>
 20030ec:	1007883a 	mov	r3,r2
 20030f0:	0080fa04 	movi	r2,1000
 20030f4:	1885203a 	divu	r2,r3,r2
 20030f8:	10800c04 	addi	r2,r2,48
 20030fc:	e0bffd05 	stb	r2,-12(fp)
   d[1]=(alt_u32)n/100%10+0x30;
 2003100:	e13fff17 	ldw	r4,-4(fp)
 2003104:	200c3600 	call	200c360 <__fixunssfsi>
 2003108:	1007883a 	mov	r3,r2
 200310c:	00801904 	movi	r2,100
 2003110:	1887203a 	divu	r3,r3,r2
 2003114:	00800284 	movi	r2,10
 2003118:	1885203a 	divu	r2,r3,r2
 200311c:	108002a4 	muli	r2,r2,10
 2003120:	1885c83a 	sub	r2,r3,r2
 2003124:	10800c04 	addi	r2,r2,48
 2003128:	e0bffd45 	stb	r2,-11(fp)
   d[2]=(alt_u32)n/10%10+0x30;
 200312c:	e13fff17 	ldw	r4,-4(fp)
 2003130:	200c3600 	call	200c360 <__fixunssfsi>
 2003134:	1007883a 	mov	r3,r2
 2003138:	00800284 	movi	r2,10
 200313c:	1887203a 	divu	r3,r3,r2
 2003140:	00800284 	movi	r2,10
 2003144:	1885203a 	divu	r2,r3,r2
 2003148:	108002a4 	muli	r2,r2,10
 200314c:	1885c83a 	sub	r2,r3,r2
 2003150:	10800c04 	addi	r2,r2,48
 2003154:	e0bffd85 	stb	r2,-10(fp)
   d[3]='.';
 2003158:	00800b84 	movi	r2,46
 200315c:	e0bffdc5 	stb	r2,-9(fp)
   d[4]=(alt_u32)n%10+0x30;
 2003160:	e13fff17 	ldw	r4,-4(fp)
 2003164:	200c3600 	call	200c360 <__fixunssfsi>
 2003168:	1007883a 	mov	r3,r2
 200316c:	00800284 	movi	r2,10
 2003170:	1885203a 	divu	r2,r3,r2
 2003174:	108002a4 	muli	r2,r2,10
 2003178:	1885c83a 	sub	r2,r3,r2
 200317c:	10800c04 	addi	r2,r2,48
 2003180:	e0bffe05 	stb	r2,-8(fp)
   d[5]='\0';
 2003184:	e03ffe45 	stb	zero,-7(fp)
   //ili9320_ShowString(152,140,180,145,16,d,WHITE,BLUE);

}
 2003188:	e037883a 	mov	sp,fp
 200318c:	dfc00117 	ldw	ra,4(sp)
 2003190:	df000017 	ldw	fp,0(sp)
 2003194:	dec00204 	addi	sp,sp,8
 2003198:	f800283a 	ret

0200319c <DDS_RAM_WR>:

//0--z1-- 2--;3--
void DDS_RAM_WR(alt_u8 n)
{
 200319c:	defff704 	addi	sp,sp,-36
 20031a0:	dfc00815 	stw	ra,32(sp)
 20031a4:	df000715 	stw	fp,28(sp)
 20031a8:	df000704 	addi	fp,sp,28
 20031ac:	e13ffe05 	stb	r4,-8(fp)
	alt_u16 i;
	switch(n)
 20031b0:	e0bffe03 	ldbu	r2,-8(fp)
 20031b4:	e0bfff15 	stw	r2,-4(fp)
 20031b8:	e0ffff17 	ldw	r3,-4(fp)
 20031bc:	18800060 	cmpeqi	r2,r3,1
 20031c0:	1000301e 	bne	r2,zero,2003284 <DDS_RAM_WR+0xe8>
 20031c4:	e0ffff17 	ldw	r3,-4(fp)
 20031c8:	18800088 	cmpgei	r2,r3,2
 20031cc:	1000041e 	bne	r2,zero,20031e0 <DDS_RAM_WR+0x44>
 20031d0:	e0ffff17 	ldw	r3,-4(fp)
 20031d4:	1805003a 	cmpeq	r2,r3,zero
 20031d8:	1000081e 	bne	r2,zero,20031fc <DDS_RAM_WR+0x60>
 20031dc:	00008e06 	br	2003418 <DDS_RAM_WR+0x27c>
 20031e0:	e0ffff17 	ldw	r3,-4(fp)
 20031e4:	188000a0 	cmpeqi	r2,r3,2
 20031e8:	1000481e 	bne	r2,zero,200330c <DDS_RAM_WR+0x170>
 20031ec:	e0ffff17 	ldw	r3,-4(fp)
 20031f0:	188000e0 	cmpeqi	r2,r3,3
 20031f4:	1000671e 	bne	r2,zero,2003394 <DDS_RAM_WR+0x1f8>
 20031f8:	00008706 	br	2003418 <DDS_RAM_WR+0x27c>
	{
		case 0:{
				for(i = 0; i <256; i++)
 20031fc:	e03ffd0d 	sth	zero,-12(fp)
 2003200:	00000f06 	br	2003240 <DDS_RAM_WR+0xa4>
					DDS_DATA_WRITE(i,sin_data[i]);
 2003204:	e0bffd0b 	ldhu	r2,-12(fp)
 2003208:	1085883a 	add	r2,r2,r2
 200320c:	1085883a 	add	r2,r2,r2
 2003210:	11080004 	addi	r4,r2,8192
 2003214:	e0fffd0b 	ldhu	r3,-12(fp)
 2003218:	008080b4 	movhi	r2,514
 200321c:	10941c04 	addi	r2,r2,20592
 2003220:	10c5883a 	add	r2,r2,r3
 2003224:	10800003 	ldbu	r2,0(r2)
 2003228:	10c03fcc 	andi	r3,r2,255
 200322c:	2005883a 	mov	r2,r4
 2003230:	10c00035 	stwio	r3,0(r2)
{
	alt_u16 i;
	switch(n)
	{
		case 0:{
				for(i = 0; i <256; i++)
 2003234:	e0bffd0b 	ldhu	r2,-12(fp)
 2003238:	10800044 	addi	r2,r2,1
 200323c:	e0bffd0d 	sth	r2,-12(fp)
 2003240:	e0bffd0b 	ldhu	r2,-12(fp)
 2003244:	10804030 	cmpltui	r2,r2,256
 2003248:	103fee1e 	bne	r2,zero,2003204 <DDS_RAM_WR+0x68>
					DDS_DATA_WRITE(i,sin_data[i]);
				ili9320_ShowString(190,225,120,12,12,"DDS1=",YELLOW,BLACK);
 200324c:	008080b4 	movhi	r2,514
 2003250:	108ef604 	addi	r2,r2,15320
 2003254:	00c00304 	movi	r3,12
 2003258:	d8c00015 	stw	r3,0(sp)
 200325c:	d8800115 	stw	r2,4(sp)
 2003260:	00bff814 	movui	r2,65504
 2003264:	d8800215 	stw	r2,8(sp)
 2003268:	d8000315 	stw	zero,12(sp)
 200326c:	01002f84 	movi	r4,190
 2003270:	01403844 	movi	r5,225
 2003274:	01801e04 	movi	r6,120
 2003278:	01c00304 	movi	r7,12
 200327c:	200614c0 	call	200614c <ili9320_ShowString>
		}break;
 2003280:	00006506 	br	2003418 <DDS_RAM_WR+0x27c>
		case 1:{
			for(i = 0; i <256; i++)
 2003284:	e03ffd0d 	sth	zero,-12(fp)
 2003288:	00000f06 	br	20032c8 <DDS_RAM_WR+0x12c>
				DDS_DATA_WRITE(i,square_data[i]);
 200328c:	e0bffd0b 	ldhu	r2,-12(fp)
 2003290:	1085883a 	add	r2,r2,r2
 2003294:	1085883a 	add	r2,r2,r2
 2003298:	11080004 	addi	r4,r2,8192
 200329c:	e0fffd0b 	ldhu	r3,-12(fp)
 20032a0:	008080b4 	movhi	r2,514
 20032a4:	1093dc04 	addi	r2,r2,20336
 20032a8:	10c5883a 	add	r2,r2,r3
 20032ac:	10800003 	ldbu	r2,0(r2)
 20032b0:	10c03fcc 	andi	r3,r2,255
 20032b4:	2005883a 	mov	r2,r4
 20032b8:	10c00035 	stwio	r3,0(r2)
				for(i = 0; i <256; i++)
					DDS_DATA_WRITE(i,sin_data[i]);
				ili9320_ShowString(190,225,120,12,12,"DDS1=",YELLOW,BLACK);
		}break;
		case 1:{
			for(i = 0; i <256; i++)
 20032bc:	e0bffd0b 	ldhu	r2,-12(fp)
 20032c0:	10800044 	addi	r2,r2,1
 20032c4:	e0bffd0d 	sth	r2,-12(fp)
 20032c8:	e0bffd0b 	ldhu	r2,-12(fp)
 20032cc:	10804030 	cmpltui	r2,r2,256
 20032d0:	103fee1e 	bne	r2,zero,200328c <DDS_RAM_WR+0xf0>
				DDS_DATA_WRITE(i,square_data[i]);
			ili9320_ShowString(190,225,120,12,12,"DDS2=",YELLOW,BLACK);
 20032d4:	008080b4 	movhi	r2,514
 20032d8:	108ef804 	addi	r2,r2,15328
 20032dc:	00c00304 	movi	r3,12
 20032e0:	d8c00015 	stw	r3,0(sp)
 20032e4:	d8800115 	stw	r2,4(sp)
 20032e8:	00bff814 	movui	r2,65504
 20032ec:	d8800215 	stw	r2,8(sp)
 20032f0:	d8000315 	stw	zero,12(sp)
 20032f4:	01002f84 	movi	r4,190
 20032f8:	01403844 	movi	r5,225
 20032fc:	01801e04 	movi	r6,120
 2003300:	01c00304 	movi	r7,12
 2003304:	200614c0 	call	200614c <ili9320_ShowString>
		}break;
 2003308:	00004306 	br	2003418 <DDS_RAM_WR+0x27c>
		case 2:{
			for(i = 0; i <256; i++)
 200330c:	e03ffd0d 	sth	zero,-12(fp)
 2003310:	00000f06 	br	2003350 <DDS_RAM_WR+0x1b4>
				DDS_DATA_WRITE(i,triangular_data[i]);
 2003314:	e0bffd0b 	ldhu	r2,-12(fp)
 2003318:	1085883a 	add	r2,r2,r2
 200331c:	1085883a 	add	r2,r2,r2
 2003320:	11080004 	addi	r4,r2,8192
 2003324:	e0fffd0b 	ldhu	r3,-12(fp)
 2003328:	008080b4 	movhi	r2,514
 200332c:	10945c04 	addi	r2,r2,20848
 2003330:	10c5883a 	add	r2,r2,r3
 2003334:	10800003 	ldbu	r2,0(r2)
 2003338:	10c03fcc 	andi	r3,r2,255
 200333c:	2005883a 	mov	r2,r4
 2003340:	10c00035 	stwio	r3,0(r2)
			for(i = 0; i <256; i++)
				DDS_DATA_WRITE(i,square_data[i]);
			ili9320_ShowString(190,225,120,12,12,"DDS2=",YELLOW,BLACK);
		}break;
		case 2:{
			for(i = 0; i <256; i++)
 2003344:	e0bffd0b 	ldhu	r2,-12(fp)
 2003348:	10800044 	addi	r2,r2,1
 200334c:	e0bffd0d 	sth	r2,-12(fp)
 2003350:	e0bffd0b 	ldhu	r2,-12(fp)
 2003354:	10804030 	cmpltui	r2,r2,256
 2003358:	103fee1e 	bne	r2,zero,2003314 <DDS_RAM_WR+0x178>
				DDS_DATA_WRITE(i,triangular_data[i]);

			ili9320_ShowString(190,225,120,12,12,"DDS3=",YELLOW,BLACK);
 200335c:	008080b4 	movhi	r2,514
 2003360:	108efa04 	addi	r2,r2,15336
 2003364:	00c00304 	movi	r3,12
 2003368:	d8c00015 	stw	r3,0(sp)
 200336c:	d8800115 	stw	r2,4(sp)
 2003370:	00bff814 	movui	r2,65504
 2003374:	d8800215 	stw	r2,8(sp)
 2003378:	d8000315 	stw	zero,12(sp)
 200337c:	01002f84 	movi	r4,190
 2003380:	01403844 	movi	r5,225
 2003384:	01801e04 	movi	r6,120
 2003388:	01c00304 	movi	r7,12
 200338c:	200614c0 	call	200614c <ili9320_ShowString>
		}break;
 2003390:	00002106 	br	2003418 <DDS_RAM_WR+0x27c>
		case 3:{
			for(i = 0; i <256; i++)
 2003394:	e03ffd0d 	sth	zero,-12(fp)
 2003398:	00000f06 	br	20033d8 <DDS_RAM_WR+0x23c>
				DDS_DATA_WRITE(i,zigzag_data[i]);
 200339c:	e0bffd0b 	ldhu	r2,-12(fp)
 20033a0:	1085883a 	add	r2,r2,r2
 20033a4:	1085883a 	add	r2,r2,r2
 20033a8:	11080004 	addi	r4,r2,8192
 20033ac:	e0fffd0b 	ldhu	r3,-12(fp)
 20033b0:	008080b4 	movhi	r2,514
 20033b4:	10949c04 	addi	r2,r2,21104
 20033b8:	10c5883a 	add	r2,r2,r3
 20033bc:	10800003 	ldbu	r2,0(r2)
 20033c0:	10c03fcc 	andi	r3,r2,255
 20033c4:	2005883a 	mov	r2,r4
 20033c8:	10c00035 	stwio	r3,0(r2)
				DDS_DATA_WRITE(i,triangular_data[i]);

			ili9320_ShowString(190,225,120,12,12,"DDS3=",YELLOW,BLACK);
		}break;
		case 3:{
			for(i = 0; i <256; i++)
 20033cc:	e0bffd0b 	ldhu	r2,-12(fp)
 20033d0:	10800044 	addi	r2,r2,1
 20033d4:	e0bffd0d 	sth	r2,-12(fp)
 20033d8:	e0bffd0b 	ldhu	r2,-12(fp)
 20033dc:	10804030 	cmpltui	r2,r2,256
 20033e0:	103fee1e 	bne	r2,zero,200339c <DDS_RAM_WR+0x200>
				DDS_DATA_WRITE(i,zigzag_data[i]);

			ili9320_ShowString(190,225,120,12,12,"DDS4=",YELLOW,BLACK);
 20033e4:	008080b4 	movhi	r2,514
 20033e8:	108efc04 	addi	r2,r2,15344
 20033ec:	00c00304 	movi	r3,12
 20033f0:	d8c00015 	stw	r3,0(sp)
 20033f4:	d8800115 	stw	r2,4(sp)
 20033f8:	00bff814 	movui	r2,65504
 20033fc:	d8800215 	stw	r2,8(sp)
 2003400:	d8000315 	stw	zero,12(sp)
 2003404:	01002f84 	movi	r4,190
 2003408:	01403844 	movi	r5,225
 200340c:	01801e04 	movi	r6,120
 2003410:	01c00304 	movi	r7,12
 2003414:	200614c0 	call	200614c <ili9320_ShowString>
		default:
			break;
	}


}
 2003418:	e037883a 	mov	sp,fp
 200341c:	dfc00117 	ldw	ra,4(sp)
 2003420:	df000017 	ldw	fp,0(sp)
 2003424:	dec00204 	addi	sp,sp,8
 2003428:	f800283a 	ret

0200342c <DDS_Init>:

void DDS_Init(void)
{
 200342c:	defffe04 	addi	sp,sp,-8
 2003430:	dfc00115 	stw	ra,4(sp)
 2003434:	df000015 	stw	fp,0(sp)
 2003438:	d839883a 	mov	fp,sp
	Freq=1000;
 200343c:	d0200115 	stw	zero,-32764(gp)
 2003440:	00c080b4 	movhi	r3,514
 2003444:	18db9f04 	addi	r3,r3,28284
 2003448:	009023f4 	movhi	r2,16527
 200344c:	10900004 	addi	r2,r2,16384
 2003450:	18800015 	stw	r2,0(r3)
	Phasew=0;
 2003454:	d0203815 	stw	zero,-32544(gp)
	DDSn=0;
 2003458:	d0203905 	stb	zero,-32540(gp)
	DDS_OUT(Freq);
 200345c:	d0a00117 	ldw	r2,-32764(gp)
 2003460:	010080b4 	movhi	r4,514
 2003464:	211b9f04 	addi	r4,r4,28284
 2003468:	20c00017 	ldw	r3,0(r4)
 200346c:	1009883a 	mov	r4,r2
 2003470:	180b883a 	mov	r5,r3
 2003474:	2002cdc0 	call	2002cdc <DDS_OUT>
	DDS_Phasew(Phasew);
 2003478:	d0a03817 	ldw	r2,-32544(gp)
 200347c:	1009883a 	mov	r4,r2
 2003480:	20030bc0 	call	20030bc <DDS_Phasew>
	DDS_RAM_WR(DDSn);
 2003484:	d0a03903 	ldbu	r2,-32540(gp)
 2003488:	11003fcc 	andi	r4,r2,255
 200348c:	200319c0 	call	200319c <DDS_RAM_WR>



}
 2003490:	e037883a 	mov	sp,fp
 2003494:	dfc00117 	ldw	ra,4(sp)
 2003498:	df000017 	ldw	fp,0(sp)
 200349c:	dec00204 	addi	sp,sp,8
 20034a0:	f800283a 	ret

020034a4 <WrClkDiv>:
#include "unistd.h"//usleep
#include "tlv5638.h"
alt_u8 LCKDIV=0;
alt_u8 VDIV=8;
void WrClkDiv(alt_u8 n)
{
 20034a4:	defff804 	addi	sp,sp,-32
 20034a8:	dfc00715 	stw	ra,28(sp)
 20034ac:	df000615 	stw	fp,24(sp)
 20034b0:	df000604 	addi	fp,sp,24
 20034b4:	e13ffe05 	stb	r4,-8(fp)
	switch(n)
 20034b8:	e0bffe03 	ldbu	r2,-8(fp)
 20034bc:	e0bfff15 	stw	r2,-4(fp)
 20034c0:	e0ffff17 	ldw	r3,-4(fp)
 20034c4:	188003e8 	cmpgeui	r2,r3,15
 20034c8:	1001171e 	bne	r2,zero,2003928 <WrClkDiv+0x484>
 20034cc:	e13fff17 	ldw	r4,-4(fp)
 20034d0:	e13fff17 	ldw	r4,-4(fp)
 20034d4:	2105883a 	add	r2,r4,r4
 20034d8:	1087883a 	add	r3,r2,r2
 20034dc:	00808034 	movhi	r2,512
 20034e0:	108d3c04 	addi	r2,r2,13552
 20034e4:	1885883a 	add	r2,r3,r2
 20034e8:	10800017 	ldw	r2,0(r2)
 20034ec:	1000683a 	jmp	r2
 20034f0:	0200352c 	andhi	r8,zero,212
 20034f4:	02003574 	movhi	r8,213
 20034f8:	020035b8 	rdprs	r8,zero,214
 20034fc:	020035fc 	xorhi	r8,zero,215
 2003500:	02003640 	call	200364 <OSCtxSw_SWITCH_PC+0x200324>
 2003504:	02003684 	movi	r8,218
 2003508:	020036c8 	cmpgei	r8,zero,219
 200350c:	0200370c 	andi	r8,zero,220
 2003510:	02003750 	cmplti	r8,zero,221
 2003514:	02003794 	movui	r8,222
 2003518:	020037d8 	cmpnei	r8,zero,223
 200351c:	0200381c 	xori	r8,zero,224
 2003520:	02003860 	cmpeqi	r8,zero,225
 2003524:	020038a4 	muli	r8,zero,226
 2003528:	020038e8 	cmpgeui	r8,zero,227
	{
		case 0:{
			WriteClkDiv(79999);//50Hz*25=1.25K
 200352c:	00c93e04 	movi	r3,9464
 2003530:	00800074 	movhi	r2,1
 2003534:	108e1fc4 	addi	r2,r2,14463
 2003538:	18800035 	stwio	r2,0(r3)
			//usleep(5);
			ili9320_ShowString(80,5,120,12,12,"Time 20.00ms/div",WHITE,BLACK);
 200353c:	00c080b4 	movhi	r3,514
 2003540:	18cefe04 	addi	r3,r3,15352
 2003544:	00800304 	movi	r2,12
 2003548:	d8800015 	stw	r2,0(sp)
 200354c:	d8c00115 	stw	r3,4(sp)
 2003550:	00bfffd4 	movui	r2,65535
 2003554:	d8800215 	stw	r2,8(sp)
 2003558:	d8000315 	stw	zero,12(sp)
 200355c:	01001404 	movi	r4,80
 2003560:	01400144 	movi	r5,5
 2003564:	01801e04 	movi	r6,120
 2003568:	01c00304 	movi	r7,12
 200356c:	200614c0 	call	200614c <ili9320_ShowString>
		}break;
 2003570:	0000ed06 	br	2003928 <WrClkDiv+0x484>
		case 1:{
			WriteClkDiv(39999);//100*25=2.5K
 2003574:	00c93e04 	movi	r3,9464
 2003578:	00a70fd4 	movui	r2,39999
 200357c:	18800035 	stwio	r2,0(r3)
			//usleep(5);
			ili9320_ShowString(80,5,120,12,12,"Time 10.00ms/div",WHITE,BLACK);
 2003580:	00c080b4 	movhi	r3,514
 2003584:	18cf0304 	addi	r3,r3,15372
 2003588:	00800304 	movi	r2,12
 200358c:	d8800015 	stw	r2,0(sp)
 2003590:	d8c00115 	stw	r3,4(sp)
 2003594:	00bfffd4 	movui	r2,65535
 2003598:	d8800215 	stw	r2,8(sp)
 200359c:	d8000315 	stw	zero,12(sp)
 20035a0:	01001404 	movi	r4,80
 20035a4:	01400144 	movi	r5,5
 20035a8:	01801e04 	movi	r6,120
 20035ac:	01c00304 	movi	r7,12
 20035b0:	200614c0 	call	200614c <ili9320_ShowString>
		}break;
 20035b4:	0000dc06 	br	2003928 <WrClkDiv+0x484>
		case 2:{
			WriteClkDiv(19999);//200*25=5.0K
 20035b8:	00c93e04 	movi	r3,9464
 20035bc:	009387c4 	movi	r2,19999
 20035c0:	18800035 	stwio	r2,0(r3)
			//usleep(5);
			ili9320_ShowString(80,5,120,12,12,"Time 5.000ms/div",WHITE,BLACK);
 20035c4:	00c080b4 	movhi	r3,514
 20035c8:	18cf0804 	addi	r3,r3,15392
 20035cc:	00800304 	movi	r2,12
 20035d0:	d8800015 	stw	r2,0(sp)
 20035d4:	d8c00115 	stw	r3,4(sp)
 20035d8:	00bfffd4 	movui	r2,65535
 20035dc:	d8800215 	stw	r2,8(sp)
 20035e0:	d8000315 	stw	zero,12(sp)
 20035e4:	01001404 	movi	r4,80
 20035e8:	01400144 	movi	r5,5
 20035ec:	01801e04 	movi	r6,120
 20035f0:	01c00304 	movi	r7,12
 20035f4:	200614c0 	call	200614c <ili9320_ShowString>
		}break;
 20035f8:	0000cb06 	br	2003928 <WrClkDiv+0x484>
		case 3:{
			WriteClkDiv(7999);//500*25=12.5K
 20035fc:	00c93e04 	movi	r3,9464
 2003600:	0087cfc4 	movi	r2,7999
 2003604:	18800035 	stwio	r2,0(r3)
			//usleep(5);
			ili9320_ShowString(80,5,120,12,12,"Time 2.000ms/div",WHITE,BLACK);
 2003608:	00c080b4 	movhi	r3,514
 200360c:	18cf0d04 	addi	r3,r3,15412
 2003610:	00800304 	movi	r2,12
 2003614:	d8800015 	stw	r2,0(sp)
 2003618:	d8c00115 	stw	r3,4(sp)
 200361c:	00bfffd4 	movui	r2,65535
 2003620:	d8800215 	stw	r2,8(sp)
 2003624:	d8000315 	stw	zero,12(sp)
 2003628:	01001404 	movi	r4,80
 200362c:	01400144 	movi	r5,5
 2003630:	01801e04 	movi	r6,120
 2003634:	01c00304 	movi	r7,12
 2003638:	200614c0 	call	200614c <ili9320_ShowString>
		}break;
 200363c:	0000ba06 	br	2003928 <WrClkDiv+0x484>
		case 4:{
			WriteClkDiv(3999);//1k*25=25K
 2003640:	00c93e04 	movi	r3,9464
 2003644:	0083e7c4 	movi	r2,3999
 2003648:	18800035 	stwio	r2,0(r3)
			//usleep(5);
			ili9320_ShowString(80,5,120,12,12,"Time 1.000ms/div",WHITE,BLACK);
 200364c:	00c080b4 	movhi	r3,514
 2003650:	18cf1204 	addi	r3,r3,15432
 2003654:	00800304 	movi	r2,12
 2003658:	d8800015 	stw	r2,0(sp)
 200365c:	d8c00115 	stw	r3,4(sp)
 2003660:	00bfffd4 	movui	r2,65535
 2003664:	d8800215 	stw	r2,8(sp)
 2003668:	d8000315 	stw	zero,12(sp)
 200366c:	01001404 	movi	r4,80
 2003670:	01400144 	movi	r5,5
 2003674:	01801e04 	movi	r6,120
 2003678:	01c00304 	movi	r7,12
 200367c:	200614c0 	call	200614c <ili9320_ShowString>
		}break;
 2003680:	0000a906 	br	2003928 <WrClkDiv+0x484>
		case 5:{
			WriteClkDiv(1999);//2k*25=50k
 2003684:	00c93e04 	movi	r3,9464
 2003688:	0081f3c4 	movi	r2,1999
 200368c:	18800035 	stwio	r2,0(r3)
			//usleep(5);
			ili9320_ShowString(80,5,120,12,12,"Time 500.0us/div",WHITE,BLACK);
 2003690:	00c080b4 	movhi	r3,514
 2003694:	18cf1704 	addi	r3,r3,15452
 2003698:	00800304 	movi	r2,12
 200369c:	d8800015 	stw	r2,0(sp)
 20036a0:	d8c00115 	stw	r3,4(sp)
 20036a4:	00bfffd4 	movui	r2,65535
 20036a8:	d8800215 	stw	r2,8(sp)
 20036ac:	d8000315 	stw	zero,12(sp)
 20036b0:	01001404 	movi	r4,80
 20036b4:	01400144 	movi	r5,5
 20036b8:	01801e04 	movi	r6,120
 20036bc:	01c00304 	movi	r7,12
 20036c0:	200614c0 	call	200614c <ili9320_ShowString>
		}break;
 20036c4:	00009806 	br	2003928 <WrClkDiv+0x484>
		case 6:{
			WriteClkDiv(799);//5k*25=125k
 20036c8:	00c93e04 	movi	r3,9464
 20036cc:	0080c7c4 	movi	r2,799
 20036d0:	18800035 	stwio	r2,0(r3)
			//usleep(5);
			ili9320_ShowString(80,5,120,12,12,"Time 200.0us/div",WHITE,BLACK);
 20036d4:	00c080b4 	movhi	r3,514
 20036d8:	18cf1c04 	addi	r3,r3,15472
 20036dc:	00800304 	movi	r2,12
 20036e0:	d8800015 	stw	r2,0(sp)
 20036e4:	d8c00115 	stw	r3,4(sp)
 20036e8:	00bfffd4 	movui	r2,65535
 20036ec:	d8800215 	stw	r2,8(sp)
 20036f0:	d8000315 	stw	zero,12(sp)
 20036f4:	01001404 	movi	r4,80
 20036f8:	01400144 	movi	r5,5
 20036fc:	01801e04 	movi	r6,120
 2003700:	01c00304 	movi	r7,12
 2003704:	200614c0 	call	200614c <ili9320_ShowString>
		}break;
 2003708:	00008706 	br	2003928 <WrClkDiv+0x484>
		case 7:{
			WriteClkDiv(399);//10k*25=250k
 200370c:	00c93e04 	movi	r3,9464
 2003710:	008063c4 	movi	r2,399
 2003714:	18800035 	stwio	r2,0(r3)
			//usleep(5);
			ili9320_ShowString(80,5,120,12,12,"Time 100.0us/div",WHITE,BLACK);
 2003718:	00c080b4 	movhi	r3,514
 200371c:	18cf2104 	addi	r3,r3,15492
 2003720:	00800304 	movi	r2,12
 2003724:	d8800015 	stw	r2,0(sp)
 2003728:	d8c00115 	stw	r3,4(sp)
 200372c:	00bfffd4 	movui	r2,65535
 2003730:	d8800215 	stw	r2,8(sp)
 2003734:	d8000315 	stw	zero,12(sp)
 2003738:	01001404 	movi	r4,80
 200373c:	01400144 	movi	r5,5
 2003740:	01801e04 	movi	r6,120
 2003744:	01c00304 	movi	r7,12
 2003748:	200614c0 	call	200614c <ili9320_ShowString>
		}break;
 200374c:	00007606 	br	2003928 <WrClkDiv+0x484>
		case 8:{
			WriteClkDiv(199);//20k*25=500k
 2003750:	00c93e04 	movi	r3,9464
 2003754:	008031c4 	movi	r2,199
 2003758:	18800035 	stwio	r2,0(r3)
			//usleep(5);
			ili9320_ShowString(80,5,120,12,12,"Time 50.00us/div",WHITE,BLACK);
 200375c:	00c080b4 	movhi	r3,514
 2003760:	18cf2604 	addi	r3,r3,15512
 2003764:	00800304 	movi	r2,12
 2003768:	d8800015 	stw	r2,0(sp)
 200376c:	d8c00115 	stw	r3,4(sp)
 2003770:	00bfffd4 	movui	r2,65535
 2003774:	d8800215 	stw	r2,8(sp)
 2003778:	d8000315 	stw	zero,12(sp)
 200377c:	01001404 	movi	r4,80
 2003780:	01400144 	movi	r5,5
 2003784:	01801e04 	movi	r6,120
 2003788:	01c00304 	movi	r7,12
 200378c:	200614c0 	call	200614c <ili9320_ShowString>
		}break;
 2003790:	00006506 	br	2003928 <WrClkDiv+0x484>
		case 9:{
			WriteClkDiv(79);//50k*25=1.25M
 2003794:	00c93e04 	movi	r3,9464
 2003798:	008013c4 	movi	r2,79
 200379c:	18800035 	stwio	r2,0(r3)
			//usleep(5);
			ili9320_ShowString(80,5,120,12,12,"Time 20.00us/div",WHITE,BLACK);
 20037a0:	00c080b4 	movhi	r3,514
 20037a4:	18cf2b04 	addi	r3,r3,15532
 20037a8:	00800304 	movi	r2,12
 20037ac:	d8800015 	stw	r2,0(sp)
 20037b0:	d8c00115 	stw	r3,4(sp)
 20037b4:	00bfffd4 	movui	r2,65535
 20037b8:	d8800215 	stw	r2,8(sp)
 20037bc:	d8000315 	stw	zero,12(sp)
 20037c0:	01001404 	movi	r4,80
 20037c4:	01400144 	movi	r5,5
 20037c8:	01801e04 	movi	r6,120
 20037cc:	01c00304 	movi	r7,12
 20037d0:	200614c0 	call	200614c <ili9320_ShowString>
		}break;
 20037d4:	00005406 	br	2003928 <WrClkDiv+0x484>
		case 10:{
			WriteClkDiv(39);//100k*25=2.5M
 20037d8:	00c93e04 	movi	r3,9464
 20037dc:	008009c4 	movi	r2,39
 20037e0:	18800035 	stwio	r2,0(r3)
			//usleep(5);
			ili9320_ShowString(80,5,120,12,12,"Time 10.00us/div",WHITE,BLACK);
 20037e4:	00c080b4 	movhi	r3,514
 20037e8:	18cf3004 	addi	r3,r3,15552
 20037ec:	00800304 	movi	r2,12
 20037f0:	d8800015 	stw	r2,0(sp)
 20037f4:	d8c00115 	stw	r3,4(sp)
 20037f8:	00bfffd4 	movui	r2,65535
 20037fc:	d8800215 	stw	r2,8(sp)
 2003800:	d8000315 	stw	zero,12(sp)
 2003804:	01001404 	movi	r4,80
 2003808:	01400144 	movi	r5,5
 200380c:	01801e04 	movi	r6,120
 2003810:	01c00304 	movi	r7,12
 2003814:	200614c0 	call	200614c <ili9320_ShowString>
		}break;
 2003818:	00004306 	br	2003928 <WrClkDiv+0x484>
		case 11:{
			WriteClkDiv(19);//200k*25=5M
 200381c:	00c93e04 	movi	r3,9464
 2003820:	008004c4 	movi	r2,19
 2003824:	18800035 	stwio	r2,0(r3)
			//usleep(5);
			ili9320_ShowString(80,5,120,12,12,"Time 5.000us/div",WHITE,BLACK);
 2003828:	00c080b4 	movhi	r3,514
 200382c:	18cf3504 	addi	r3,r3,15572
 2003830:	00800304 	movi	r2,12
 2003834:	d8800015 	stw	r2,0(sp)
 2003838:	d8c00115 	stw	r3,4(sp)
 200383c:	00bfffd4 	movui	r2,65535
 2003840:	d8800215 	stw	r2,8(sp)
 2003844:	d8000315 	stw	zero,12(sp)
 2003848:	01001404 	movi	r4,80
 200384c:	01400144 	movi	r5,5
 2003850:	01801e04 	movi	r6,120
 2003854:	01c00304 	movi	r7,12
 2003858:	200614c0 	call	200614c <ili9320_ShowString>
		}break;
 200385c:	00003206 	br	2003928 <WrClkDiv+0x484>
		case 12:{
			WriteClkDiv(7);//500k*25=12.5M
 2003860:	00c93e04 	movi	r3,9464
 2003864:	008001c4 	movi	r2,7
 2003868:	18800035 	stwio	r2,0(r3)
			//usleep(5);
			ili9320_ShowString(80,5,120,12,12,"Time 2.000us/div",WHITE,BLACK);
 200386c:	00c080b4 	movhi	r3,514
 2003870:	18cf3a04 	addi	r3,r3,15592
 2003874:	00800304 	movi	r2,12
 2003878:	d8800015 	stw	r2,0(sp)
 200387c:	d8c00115 	stw	r3,4(sp)
 2003880:	00bfffd4 	movui	r2,65535
 2003884:	d8800215 	stw	r2,8(sp)
 2003888:	d8000315 	stw	zero,12(sp)
 200388c:	01001404 	movi	r4,80
 2003890:	01400144 	movi	r5,5
 2003894:	01801e04 	movi	r6,120
 2003898:	01c00304 	movi	r7,12
 200389c:	200614c0 	call	200614c <ili9320_ShowString>
		}break;
 20038a0:	00002106 	br	2003928 <WrClkDiv+0x484>
		case 13:{
			WriteClkDiv(3);//1m*25=25M
 20038a4:	00c93e04 	movi	r3,9464
 20038a8:	008000c4 	movi	r2,3
 20038ac:	18800035 	stwio	r2,0(r3)
			//usleep(5);
			ili9320_ShowString(80,5,120,12,12,"Time 1.000us/div",WHITE,BLACK);
 20038b0:	00c080b4 	movhi	r3,514
 20038b4:	18cf3f04 	addi	r3,r3,15612
 20038b8:	00800304 	movi	r2,12
 20038bc:	d8800015 	stw	r2,0(sp)
 20038c0:	d8c00115 	stw	r3,4(sp)
 20038c4:	00bfffd4 	movui	r2,65535
 20038c8:	d8800215 	stw	r2,8(sp)
 20038cc:	d8000315 	stw	zero,12(sp)
 20038d0:	01001404 	movi	r4,80
 20038d4:	01400144 	movi	r5,5
 20038d8:	01801e04 	movi	r6,120
 20038dc:	01c00304 	movi	r7,12
 20038e0:	200614c0 	call	200614c <ili9320_ShowString>
		}break;
 20038e4:	00001006 	br	2003928 <WrClkDiv+0x484>
		case 14:{
			WriteClkDiv(1);//2m*25=50M
 20038e8:	00c93e04 	movi	r3,9464
 20038ec:	00800044 	movi	r2,1
 20038f0:	18800035 	stwio	r2,0(r3)
			//usleep(5);
			ili9320_ShowString(80,5,120,12,12,"Time 500.0ns/div",WHITE,BLACK);
 20038f4:	00c080b4 	movhi	r3,514
 20038f8:	18cf4404 	addi	r3,r3,15632
 20038fc:	00800304 	movi	r2,12
 2003900:	d8800015 	stw	r2,0(sp)
 2003904:	d8c00115 	stw	r3,4(sp)
 2003908:	00bfffd4 	movui	r2,65535
 200390c:	d8800215 	stw	r2,8(sp)
 2003910:	d8000315 	stw	zero,12(sp)
 2003914:	01001404 	movi	r4,80
 2003918:	01400144 	movi	r5,5
 200391c:	01801e04 	movi	r6,120
 2003920:	01c00304 	movi	r7,12
 2003924:	200614c0 	call	200614c <ili9320_ShowString>
		}break;
		default:
			break;

	}
}
 2003928:	e037883a 	mov	sp,fp
 200392c:	dfc00117 	ldw	ra,4(sp)
 2003930:	df000017 	ldw	fp,0(sp)
 2003934:	dec00204 	addi	sp,sp,8
 2003938:	f800283a 	ret

0200393c <WrVDiv>:
#define DIV5  558
alt_u16 DIV[10]={DIV2+1500,DIV5+1000-4,DIV1+1000,DIV2+1000-14,DIV5+500+4,
				 DIV1+500+8,DIV2+500-8,     DIV5,      DIV1+5,DIV2-4
};
void WrVDiv(alt_u8 n)
{
 200393c:	defff804 	addi	sp,sp,-32
 2003940:	dfc00715 	stw	ra,28(sp)
 2003944:	df000615 	stw	fp,24(sp)
 2003948:	df000604 	addi	fp,sp,24
 200394c:	e13ffe05 	stb	r4,-8(fp)

	switch(n)
 2003950:	e0bffe03 	ldbu	r2,-8(fp)
 2003954:	e0bfff15 	stw	r2,-4(fp)
 2003958:	e0ffff17 	ldw	r3,-4(fp)
 200395c:	188002a8 	cmpgeui	r2,r3,10
 2003960:	1000d01e 	bne	r2,zero,2003ca4 <WrVDiv+0x368>
 2003964:	e13fff17 	ldw	r4,-4(fp)
 2003968:	e13fff17 	ldw	r4,-4(fp)
 200396c:	2105883a 	add	r2,r4,r4
 2003970:	1087883a 	add	r3,r2,r2
 2003974:	00808034 	movhi	r2,512
 2003978:	108e6204 	addi	r2,r2,14728
 200397c:	1885883a 	add	r2,r3,r2
 2003980:	10800017 	ldw	r2,0(r2)
 2003984:	1000683a 	jmp	r2
 2003988:	020039b0 	cmpltui	r8,zero,230
 200398c:	020039fc 	xorhi	r8,zero,231
 2003990:	02003a48 	cmpgei	r8,zero,233
 2003994:	02003a94 	movui	r8,234
 2003998:	02003ae0 	cmpeqi	r8,zero,235
 200399c:	02003b2c 	andhi	r8,zero,236
 20039a0:	02003b78 	rdprs	r8,zero,237
 20039a4:	02003bc4 	movi	r8,239
 20039a8:	02003c10 	cmplti	r8,zero,240
 20039ac:	02003c5c 	xori	r8,zero,241
	{
		case 0:{
			ili9320_ShowString(10,5,120,12,12,"2.00mV/div",WHITE,BLACK);//OK
 20039b0:	00c080b4 	movhi	r3,514
 20039b4:	18cf4904 	addi	r3,r3,15652
 20039b8:	00800304 	movi	r2,12
 20039bc:	d8800015 	stw	r2,0(sp)
 20039c0:	d8c00115 	stw	r3,4(sp)
 20039c4:	00bfffd4 	movui	r2,65535
 20039c8:	d8800215 	stw	r2,8(sp)
 20039cc:	d8000315 	stw	zero,12(sp)
 20039d0:	01000284 	movi	r4,10
 20039d4:	01400144 	movi	r5,5
 20039d8:	01801e04 	movi	r6,120
 20039dc:	01c00304 	movi	r7,12
 20039e0:	200614c0 	call	200614c <ili9320_ShowString>
			TLV5638_Out(DIV[0]);//1790
 20039e4:	008080b4 	movhi	r2,514
 20039e8:	1094dc04 	addi	r2,r2,21360
 20039ec:	1080000b 	ldhu	r2,0(r2)
 20039f0:	113fffcc 	andi	r4,r2,65535
 20039f4:	2007f2c0 	call	2007f2c <TLV5638_Out>
		}break;
 20039f8:	0000aa06 	br	2003ca4 <WrVDiv+0x368>
		case 1:{
			ili9320_ShowString(10,5,120,12,12,"5.00mV/div",WHITE,BLACK);//25
 20039fc:	00c080b4 	movhi	r3,514
 2003a00:	18cf4c04 	addi	r3,r3,15664
 2003a04:	00800304 	movi	r2,12
 2003a08:	d8800015 	stw	r2,0(sp)
 2003a0c:	d8c00115 	stw	r3,4(sp)
 2003a10:	00bfffd4 	movui	r2,65535
 2003a14:	d8800215 	stw	r2,8(sp)
 2003a18:	d8000315 	stw	zero,12(sp)
 2003a1c:	01000284 	movi	r4,10
 2003a20:	01400144 	movi	r5,5
 2003a24:	01801e04 	movi	r6,120
 2003a28:	01c00304 	movi	r7,12
 2003a2c:	200614c0 	call	200614c <ili9320_ShowString>
			TLV5638_Out(DIV[1]);//1588
 2003a30:	008080b4 	movhi	r2,514
 2003a34:	1094dc04 	addi	r2,r2,21360
 2003a38:	1080008b 	ldhu	r2,2(r2)
 2003a3c:	113fffcc 	andi	r4,r2,65535
 2003a40:	2007f2c0 	call	2007f2c <TLV5638_Out>
		}break;
 2003a44:	00009706 	br	2003ca4 <WrVDiv+0x368>
		case 2:{
			ili9320_ShowString(10,5,120,12,12,"10.0mV/div",WHITE,BLACK);//1.25
 2003a48:	00c080b4 	movhi	r3,514
 2003a4c:	18cf4f04 	addi	r3,r3,15676
 2003a50:	00800304 	movi	r2,12
 2003a54:	d8800015 	stw	r2,0(sp)
 2003a58:	d8c00115 	stw	r3,4(sp)
 2003a5c:	00bfffd4 	movui	r2,65535
 2003a60:	d8800215 	stw	r2,8(sp)
 2003a64:	d8000315 	stw	zero,12(sp)
 2003a68:	01000284 	movi	r4,10
 2003a6c:	01400144 	movi	r5,5
 2003a70:	01801e04 	movi	r6,120
 2003a74:	01c00304 	movi	r7,12
 2003a78:	200614c0 	call	200614c <ili9320_ShowString>
			TLV5638_Out(DIV[2]);//1448
 2003a7c:	008080b4 	movhi	r2,514
 2003a80:	1094dc04 	addi	r2,r2,21360
 2003a84:	1080010b 	ldhu	r2,4(r2)
 2003a88:	113fffcc 	andi	r4,r2,65535
 2003a8c:	2007f2c0 	call	2007f2c <TLV5638_Out>

		}break;
 2003a90:	00008406 	br	2003ca4 <WrVDiv+0x368>
		case 3:{
			ili9320_ShowString(10,5,120,12,12,"20.0mV/div",WHITE,BLACK);//OK
 2003a94:	00c080b4 	movhi	r3,514
 2003a98:	18cf5204 	addi	r3,r3,15688
 2003a9c:	00800304 	movi	r2,12
 2003aa0:	d8800015 	stw	r2,0(sp)
 2003aa4:	d8c00115 	stw	r3,4(sp)
 2003aa8:	00bfffd4 	movui	r2,65535
 2003aac:	d8800215 	stw	r2,8(sp)
 2003ab0:	d8000315 	stw	zero,12(sp)
 2003ab4:	01000284 	movi	r4,10
 2003ab8:	01400144 	movi	r5,5
 2003abc:	01801e04 	movi	r6,120
 2003ac0:	01c00304 	movi	r7,12
 2003ac4:	200614c0 	call	200614c <ili9320_ShowString>
			TLV5638_Out(DIV[3]);//1298
 2003ac8:	008080b4 	movhi	r2,514
 2003acc:	1094dc04 	addi	r2,r2,21360
 2003ad0:	1080018b 	ldhu	r2,6(r2)
 2003ad4:	113fffcc 	andi	r4,r2,65535
 2003ad8:	2007f2c0 	call	2007f2c <TLV5638_Out>

		}break;
 2003adc:	00007106 	br	2003ca4 <WrVDiv+0x368>
		case 4:{
			ili9320_ShowString(10,5,120,12,12,"50.0mV/div",WHITE,BLACK);//OK
 2003ae0:	00c080b4 	movhi	r3,514
 2003ae4:	18cf5504 	addi	r3,r3,15700
 2003ae8:	00800304 	movi	r2,12
 2003aec:	d8800015 	stw	r2,0(sp)
 2003af0:	d8c00115 	stw	r3,4(sp)
 2003af4:	00bfffd4 	movui	r2,65535
 2003af8:	d8800215 	stw	r2,8(sp)
 2003afc:	d8000315 	stw	zero,12(sp)
 2003b00:	01000284 	movi	r4,10
 2003b04:	01400144 	movi	r5,5
 2003b08:	01801e04 	movi	r6,120
 2003b0c:	01c00304 	movi	r7,12
 2003b10:	200614c0 	call	200614c <ili9320_ShowString>
			TLV5638_Out(DIV[4]);//1091
 2003b14:	008080b4 	movhi	r2,514
 2003b18:	1094dc04 	addi	r2,r2,21360
 2003b1c:	1080020b 	ldhu	r2,8(r2)
 2003b20:	113fffcc 	andi	r4,r2,65535
 2003b24:	2007f2c0 	call	2007f2c <TLV5638_Out>

		}break;
 2003b28:	00005e06 	br	2003ca4 <WrVDiv+0x368>
		case 5:{
			ili9320_ShowString(10,5,120,12,12,"100mV/div",WHITE,BLACK);//1/4
 2003b2c:	00c080b4 	movhi	r3,514
 2003b30:	18cf5804 	addi	r3,r3,15712
 2003b34:	00800304 	movi	r2,12
 2003b38:	d8800015 	stw	r2,0(sp)
 2003b3c:	d8c00115 	stw	r3,4(sp)
 2003b40:	00bfffd4 	movui	r2,65535
 2003b44:	d8800215 	stw	r2,8(sp)
 2003b48:	d8000315 	stw	zero,12(sp)
 2003b4c:	01000284 	movi	r4,10
 2003b50:	01400144 	movi	r5,5
 2003b54:	01801e04 	movi	r6,120
 2003b58:	01c00304 	movi	r7,12
 2003b5c:	200614c0 	call	200614c <ili9320_ShowString>
			TLV5638_Out(DIV[5]);//925
 2003b60:	008080b4 	movhi	r2,514
 2003b64:	1094dc04 	addi	r2,r2,21360
 2003b68:	1080028b 	ldhu	r2,10(r2)
 2003b6c:	113fffcc 	andi	r4,r2,65535
 2003b70:	2007f2c0 	call	2007f2c <TLV5638_Out>

		}break;
 2003b74:	00004b06 	br	2003ca4 <WrVDiv+0x368>
		case 6:{
			ili9320_ShowString(10,5,120,12,12,"200mV/div",WHITE,BLACK);//1/4
 2003b78:	00c080b4 	movhi	r3,514
 2003b7c:	18cf5b04 	addi	r3,r3,15724
 2003b80:	00800304 	movi	r2,12
 2003b84:	d8800015 	stw	r2,0(sp)
 2003b88:	d8c00115 	stw	r3,4(sp)
 2003b8c:	00bfffd4 	movui	r2,65535
 2003b90:	d8800215 	stw	r2,8(sp)
 2003b94:	d8000315 	stw	zero,12(sp)
 2003b98:	01000284 	movi	r4,10
 2003b9c:	01400144 	movi	r5,5
 2003ba0:	01801e04 	movi	r6,120
 2003ba4:	01c00304 	movi	r7,12
 2003ba8:	200614c0 	call	200614c <ili9320_ShowString>
			TLV5638_Out(DIV[6]);//768
 2003bac:	008080b4 	movhi	r2,514
 2003bb0:	1094dc04 	addi	r2,r2,21360
 2003bb4:	1080030b 	ldhu	r2,12(r2)
 2003bb8:	113fffcc 	andi	r4,r2,65535
 2003bbc:	2007f2c0 	call	2007f2c <TLV5638_Out>

		}break;
 2003bc0:	00003806 	br	2003ca4 <WrVDiv+0x368>
		case 7:{
			ili9320_ShowString(10,5,120,12,12,"500mV/div",WHITE,BLACK);//OK
 2003bc4:	00c080b4 	movhi	r3,514
 2003bc8:	18cf5e04 	addi	r3,r3,15736
 2003bcc:	00800304 	movi	r2,12
 2003bd0:	d8800015 	stw	r2,0(sp)
 2003bd4:	d8c00115 	stw	r3,4(sp)
 2003bd8:	00bfffd4 	movui	r2,65535
 2003bdc:	d8800215 	stw	r2,8(sp)
 2003be0:	d8000315 	stw	zero,12(sp)
 2003be4:	01000284 	movi	r4,10
 2003be8:	01400144 	movi	r5,5
 2003bec:	01801e04 	movi	r6,120
 2003bf0:	01c00304 	movi	r7,12
 2003bf4:	200614c0 	call	200614c <ili9320_ShowString>
			TLV5638_Out(DIV[7]);//558
 2003bf8:	008080b4 	movhi	r2,514
 2003bfc:	1094dc04 	addi	r2,r2,21360
 2003c00:	1080038b 	ldhu	r2,14(r2)
 2003c04:	113fffcc 	andi	r4,r2,65535
 2003c08:	2007f2c0 	call	2007f2c <TLV5638_Out>

		}break;
 2003c0c:	00002506 	br	2003ca4 <WrVDiv+0x368>
		case 8:{
			ili9320_ShowString(10,5,120,12,12,"1.00V/div ",WHITE,BLACK);//1/4
 2003c10:	00c080b4 	movhi	r3,514
 2003c14:	18cf6104 	addi	r3,r3,15748
 2003c18:	00800304 	movi	r2,12
 2003c1c:	d8800015 	stw	r2,0(sp)
 2003c20:	d8c00115 	stw	r3,4(sp)
 2003c24:	00bfffd4 	movui	r2,65535
 2003c28:	d8800215 	stw	r2,8(sp)
 2003c2c:	d8000315 	stw	zero,12(sp)
 2003c30:	01000284 	movi	r4,10
 2003c34:	01400144 	movi	r5,5
 2003c38:	01801e04 	movi	r6,120
 2003c3c:	01c00304 	movi	r7,12
 2003c40:	200614c0 	call	200614c <ili9320_ShowString>
			TLV5638_Out(DIV[8]);//403
 2003c44:	008080b4 	movhi	r2,514
 2003c48:	1094dc04 	addi	r2,r2,21360
 2003c4c:	1080040b 	ldhu	r2,16(r2)
 2003c50:	113fffcc 	andi	r4,r2,65535
 2003c54:	2007f2c0 	call	2007f2c <TLV5638_Out>

		}break;
 2003c58:	00001206 	br	2003ca4 <WrVDiv+0x368>
		case 9:{
			ili9320_ShowString(10,5,120,12,12,"2.00V/div ",WHITE,BLACK);//1/4
 2003c5c:	00c080b4 	movhi	r3,514
 2003c60:	18cf6404 	addi	r3,r3,15760
 2003c64:	00800304 	movi	r2,12
 2003c68:	d8800015 	stw	r2,0(sp)
 2003c6c:	d8c00115 	stw	r3,4(sp)
 2003c70:	00bfffd4 	movui	r2,65535
 2003c74:	d8800215 	stw	r2,8(sp)
 2003c78:	d8000315 	stw	zero,12(sp)
 2003c7c:	01000284 	movi	r4,10
 2003c80:	01400144 	movi	r5,5
 2003c84:	01801e04 	movi	r6,120
 2003c88:	01c00304 	movi	r7,12
 2003c8c:	200614c0 	call	200614c <ili9320_ShowString>
			TLV5638_Out(DIV[9]);//268
 2003c90:	008080b4 	movhi	r2,514
 2003c94:	1094dc04 	addi	r2,r2,21360
 2003c98:	1080048b 	ldhu	r2,18(r2)
 2003c9c:	113fffcc 	andi	r4,r2,65535
 2003ca0:	2007f2c0 	call	2007f2c <TLV5638_Out>
		}break;
		default:
			break;

	}
}
 2003ca4:	e037883a 	mov	sp,fp
 2003ca8:	dfc00117 	ldw	ra,4(sp)
 2003cac:	df000017 	ldw	fp,0(sp)
 2003cb0:	dec00204 	addi	sp,sp,8
 2003cb4:	f800283a 	ret

02003cb8 <DJDaut>:
*  
* n
* 
********************************************************************/
__inline void DJDaut(double n)
{
 2003cb8:	deffee04 	addi	sp,sp,-72
 2003cbc:	dfc01115 	stw	ra,68(sp)
 2003cc0:	df001015 	stw	fp,64(sp)
 2003cc4:	df001004 	addi	fp,sp,64
 2003cc8:	e13ffa15 	stw	r4,-24(fp)
 2003ccc:	e17ffb15 	stw	r5,-20(fp)
	char d[14];
	double temp=0.0f;
 2003cd0:	e03ff415 	stw	zero,-48(fp)
 2003cd4:	e03ff515 	stw	zero,-44(fp)

	if(n>=0 && n<1000)
 2003cd8:	e03fff05 	stb	zero,-4(fp)
 2003cdc:	e13ffa17 	ldw	r4,-24(fp)
 2003ce0:	e17ffb17 	ldw	r5,-20(fp)
 2003ce4:	000d883a 	mov	r6,zero
 2003ce8:	000f883a 	mov	r7,zero
 2003cec:	200da140 	call	200da14 <__gedf2>
 2003cf0:	1004403a 	cmpge	r2,r2,zero
 2003cf4:	1000011e 	bne	r2,zero,2003cfc <DJDaut+0x44>
 2003cf8:	00000206 	br	2003d04 <DJDaut+0x4c>
 2003cfc:	00800044 	movi	r2,1
 2003d00:	e0bfff05 	stb	r2,-4(fp)
 2003d04:	e0ffff03 	ldbu	r3,-4(fp)
 2003d08:	1880005c 	xori	r2,r3,1
 2003d0c:	10803fcc 	andi	r2,r2,255
 2003d10:	1004c03a 	cmpne	r2,r2,zero
 2003d14:	1000221e 	bne	r2,zero,2003da0 <DJDaut+0xe8>
 2003d18:	e03ffe05 	stb	zero,-8(fp)
 2003d1c:	e13ffa17 	ldw	r4,-24(fp)
 2003d20:	e17ffb17 	ldw	r5,-20(fp)
 2003d24:	000d883a 	mov	r6,zero
 2003d28:	01d023f4 	movhi	r7,16527
 2003d2c:	39d00004 	addi	r7,r7,16384
 2003d30:	200da9c0 	call	200da9c <__ltdf2>
 2003d34:	1004803a 	cmplt	r2,r2,zero
 2003d38:	1000011e 	bne	r2,zero,2003d40 <DJDaut+0x88>
 2003d3c:	00000206 	br	2003d48 <DJDaut+0x90>
 2003d40:	00800044 	movi	r2,1
 2003d44:	e0bffe05 	stb	r2,-8(fp)
 2003d48:	e0fffe03 	ldbu	r3,-8(fp)
 2003d4c:	1880005c 	xori	r2,r3,1
 2003d50:	10803fcc 	andi	r2,r2,255
 2003d54:	1004c03a 	cmpne	r2,r2,zero
 2003d58:	1000111e 	bne	r2,zero,2003da0 <DJDaut+0xe8>
	{
		temp=n*1000000.0f;
 2003d5c:	e13ffa17 	ldw	r4,-24(fp)
 2003d60:	e17ffb17 	ldw	r5,-20(fp)
 2003d64:	000d883a 	mov	r6,zero
 2003d68:	01d04bf4 	movhi	r7,16687
 2003d6c:	39e12004 	addi	r7,r7,-31616
 2003d70:	200d2600 	call	200d260 <__muldf3>
 2003d74:	1009883a 	mov	r4,r2
 2003d78:	180b883a 	mov	r5,r3
 2003d7c:	e13ff415 	stw	r4,-48(fp)
 2003d80:	e17ff515 	stw	r5,-44(fp)
		d[10]='H';
 2003d84:	00801204 	movi	r2,72
 2003d88:	e0bff885 	stb	r2,-30(fp)
		d[11]='z';
 2003d8c:	00801e84 	movi	r2,122
 2003d90:	e0bff8c5 	stb	r2,-29(fp)
		d[12]=' ';
 2003d94:	00800804 	movi	r2,32
 2003d98:	e0bff905 	stb	r2,-28(fp)
__inline void DJDaut(double n)
{
	char d[14];
	double temp=0.0f;

	if(n>=0 && n<1000)
 2003d9c:	00004606 	br	2003eb8 <DJDaut+0x200>
		d[10]='H';
		d[11]='z';
		d[12]=' ';

	}
	else if(n>=1000 && n<1000000)
 2003da0:	e03ffd05 	stb	zero,-12(fp)
 2003da4:	e13ffa17 	ldw	r4,-24(fp)
 2003da8:	e17ffb17 	ldw	r5,-20(fp)
 2003dac:	000d883a 	mov	r6,zero
 2003db0:	01d023f4 	movhi	r7,16527
 2003db4:	39d00004 	addi	r7,r7,16384
 2003db8:	200da140 	call	200da14 <__gedf2>
 2003dbc:	1004403a 	cmpge	r2,r2,zero
 2003dc0:	1000011e 	bne	r2,zero,2003dc8 <DJDaut+0x110>
 2003dc4:	00000206 	br	2003dd0 <DJDaut+0x118>
 2003dc8:	00800044 	movi	r2,1
 2003dcc:	e0bffd05 	stb	r2,-12(fp)
 2003dd0:	e0fffd03 	ldbu	r3,-12(fp)
 2003dd4:	1880005c 	xori	r2,r3,1
 2003dd8:	10803fcc 	andi	r2,r2,255
 2003ddc:	1004c03a 	cmpne	r2,r2,zero
 2003de0:	1000221e 	bne	r2,zero,2003e6c <DJDaut+0x1b4>
 2003de4:	e03ffc05 	stb	zero,-16(fp)
 2003de8:	e13ffa17 	ldw	r4,-24(fp)
 2003dec:	e17ffb17 	ldw	r5,-20(fp)
 2003df0:	000d883a 	mov	r6,zero
 2003df4:	01d04bf4 	movhi	r7,16687
 2003df8:	39e12004 	addi	r7,r7,-31616
 2003dfc:	200da9c0 	call	200da9c <__ltdf2>
 2003e00:	1004803a 	cmplt	r2,r2,zero
 2003e04:	1000011e 	bne	r2,zero,2003e0c <DJDaut+0x154>
 2003e08:	00000206 	br	2003e14 <DJDaut+0x15c>
 2003e0c:	00800044 	movi	r2,1
 2003e10:	e0bffc05 	stb	r2,-16(fp)
 2003e14:	e0fffc03 	ldbu	r3,-16(fp)
 2003e18:	1880005c 	xori	r2,r3,1
 2003e1c:	10803fcc 	andi	r2,r2,255
 2003e20:	1004c03a 	cmpne	r2,r2,zero
 2003e24:	1000111e 	bne	r2,zero,2003e6c <DJDaut+0x1b4>
	{
		temp=n*1000;
 2003e28:	e13ffa17 	ldw	r4,-24(fp)
 2003e2c:	e17ffb17 	ldw	r5,-20(fp)
 2003e30:	000d883a 	mov	r6,zero
 2003e34:	01d023f4 	movhi	r7,16527
 2003e38:	39d00004 	addi	r7,r7,16384
 2003e3c:	200d2600 	call	200d260 <__muldf3>
 2003e40:	1009883a 	mov	r4,r2
 2003e44:	180b883a 	mov	r5,r3
 2003e48:	e13ff415 	stw	r4,-48(fp)
 2003e4c:	e17ff515 	stw	r5,-44(fp)
		d[10]='K';
 2003e50:	008012c4 	movi	r2,75
 2003e54:	e0bff885 	stb	r2,-30(fp)
		d[11]='H';
 2003e58:	00801204 	movi	r2,72
 2003e5c:	e0bff8c5 	stb	r2,-29(fp)
		d[12]='z';
 2003e60:	00801e84 	movi	r2,122
 2003e64:	e0bff905 	stb	r2,-28(fp)
		d[10]='H';
		d[11]='z';
		d[12]=' ';

	}
	else if(n>=1000 && n<1000000)
 2003e68:	00001306 	br	2003eb8 <DJDaut+0x200>
		temp=n*1000;
		d[10]='K';
		d[11]='H';
		d[12]='z';
	}
	else if(n>=1000000)
 2003e6c:	e13ffa17 	ldw	r4,-24(fp)
 2003e70:	e17ffb17 	ldw	r5,-20(fp)
 2003e74:	000d883a 	mov	r6,zero
 2003e78:	01d04bf4 	movhi	r7,16687
 2003e7c:	39e12004 	addi	r7,r7,-31616
 2003e80:	200da140 	call	200da14 <__gedf2>
 2003e84:	1004403a 	cmpge	r2,r2,zero
 2003e88:	1000011e 	bne	r2,zero,2003e90 <DJDaut+0x1d8>
 2003e8c:	00000a06 	br	2003eb8 <DJDaut+0x200>
	{
		temp=n;
 2003e90:	e0bffa17 	ldw	r2,-24(fp)
 2003e94:	e0bff415 	stw	r2,-48(fp)
 2003e98:	e0bffb17 	ldw	r2,-20(fp)
 2003e9c:	e0bff515 	stw	r2,-44(fp)
		d[10]='M';
 2003ea0:	00801344 	movi	r2,77
 2003ea4:	e0bff885 	stb	r2,-30(fp)
		d[11]='H';
 2003ea8:	00801204 	movi	r2,72
 2003eac:	e0bff8c5 	stb	r2,-29(fp)
		d[12]='z';
 2003eb0:	00801e84 	movi	r2,122
 2003eb4:	e0bff905 	stb	r2,-28(fp)
	}
	//if((alt_u32)(10.0*temp)%10>=5) temp+=1;//
	d[0]=(alt_u32)temp/100000000+0x30;
 2003eb8:	e13ff417 	ldw	r4,-48(fp)
 2003ebc:	e17ff517 	ldw	r5,-44(fp)
 2003ec0:	200c3d00 	call	200c3d0 <__fixunsdfsi>
 2003ec4:	1007883a 	mov	r3,r2
 2003ec8:	00817db4 	movhi	r2,1526
 2003ecc:	10b84004 	addi	r2,r2,-7936
 2003ed0:	1885203a 	divu	r2,r3,r2
 2003ed4:	10800c04 	addi	r2,r2,48
 2003ed8:	e0bff605 	stb	r2,-40(fp)
	d[1]=(alt_u32)temp/10000000%10+0x30;
 2003edc:	e13ff417 	ldw	r4,-48(fp)
 2003ee0:	e17ff517 	ldw	r5,-44(fp)
 2003ee4:	200c3d00 	call	200c3d0 <__fixunsdfsi>
 2003ee8:	1007883a 	mov	r3,r2
 2003eec:	00802674 	movhi	r2,153
 2003ef0:	10a5a004 	addi	r2,r2,-27008
 2003ef4:	1887203a 	divu	r3,r3,r2
 2003ef8:	00800284 	movi	r2,10
 2003efc:	1885203a 	divu	r2,r3,r2
 2003f00:	108002a4 	muli	r2,r2,10
 2003f04:	1885c83a 	sub	r2,r3,r2
 2003f08:	10800c04 	addi	r2,r2,48
 2003f0c:	e0bff645 	stb	r2,-39(fp)
	d[2]=(alt_u32)temp/1000000%10+0x30;
 2003f10:	e13ff417 	ldw	r4,-48(fp)
 2003f14:	e17ff517 	ldw	r5,-44(fp)
 2003f18:	200c3d00 	call	200c3d0 <__fixunsdfsi>
 2003f1c:	1007883a 	mov	r3,r2
 2003f20:	008003f4 	movhi	r2,15
 2003f24:	10909004 	addi	r2,r2,16960
 2003f28:	1887203a 	divu	r3,r3,r2
 2003f2c:	00800284 	movi	r2,10
 2003f30:	1885203a 	divu	r2,r3,r2
 2003f34:	108002a4 	muli	r2,r2,10
 2003f38:	1885c83a 	sub	r2,r3,r2
 2003f3c:	10800c04 	addi	r2,r2,48
 2003f40:	e0bff685 	stb	r2,-38(fp)
	d[3]='.';
 2003f44:	00800b84 	movi	r2,46
 2003f48:	e0bff6c5 	stb	r2,-37(fp)
	d[4]=(alt_u32)temp/100000%10+0x30;
 2003f4c:	e13ff417 	ldw	r4,-48(fp)
 2003f50:	e17ff517 	ldw	r5,-44(fp)
 2003f54:	200c3d00 	call	200c3d0 <__fixunsdfsi>
 2003f58:	1007883a 	mov	r3,r2
 2003f5c:	008000b4 	movhi	r2,2
 2003f60:	10a1a804 	addi	r2,r2,-31072
 2003f64:	1887203a 	divu	r3,r3,r2
 2003f68:	00800284 	movi	r2,10
 2003f6c:	1885203a 	divu	r2,r3,r2
 2003f70:	108002a4 	muli	r2,r2,10
 2003f74:	1885c83a 	sub	r2,r3,r2
 2003f78:	10800c04 	addi	r2,r2,48
 2003f7c:	e0bff705 	stb	r2,-36(fp)
	d[5]=(alt_u32)temp/10000%10+0x30;
 2003f80:	e13ff417 	ldw	r4,-48(fp)
 2003f84:	e17ff517 	ldw	r5,-44(fp)
 2003f88:	200c3d00 	call	200c3d0 <__fixunsdfsi>
 2003f8c:	1007883a 	mov	r3,r2
 2003f90:	0089c404 	movi	r2,10000
 2003f94:	1887203a 	divu	r3,r3,r2
 2003f98:	00800284 	movi	r2,10
 2003f9c:	1885203a 	divu	r2,r3,r2
 2003fa0:	108002a4 	muli	r2,r2,10
 2003fa4:	1885c83a 	sub	r2,r3,r2
 2003fa8:	10800c04 	addi	r2,r2,48
 2003fac:	e0bff745 	stb	r2,-35(fp)
	d[6]=(alt_u32)temp/1000%10+0x30;
 2003fb0:	e13ff417 	ldw	r4,-48(fp)
 2003fb4:	e17ff517 	ldw	r5,-44(fp)
 2003fb8:	200c3d00 	call	200c3d0 <__fixunsdfsi>
 2003fbc:	1007883a 	mov	r3,r2
 2003fc0:	0080fa04 	movi	r2,1000
 2003fc4:	1887203a 	divu	r3,r3,r2
 2003fc8:	00800284 	movi	r2,10
 2003fcc:	1885203a 	divu	r2,r3,r2
 2003fd0:	108002a4 	muli	r2,r2,10
 2003fd4:	1885c83a 	sub	r2,r3,r2
 2003fd8:	10800c04 	addi	r2,r2,48
 2003fdc:	e0bff785 	stb	r2,-34(fp)
	d[7]=(alt_u32)temp/100%10+0x30;
 2003fe0:	e13ff417 	ldw	r4,-48(fp)
 2003fe4:	e17ff517 	ldw	r5,-44(fp)
 2003fe8:	200c3d00 	call	200c3d0 <__fixunsdfsi>
 2003fec:	1007883a 	mov	r3,r2
 2003ff0:	00801904 	movi	r2,100
 2003ff4:	1887203a 	divu	r3,r3,r2
 2003ff8:	00800284 	movi	r2,10
 2003ffc:	1885203a 	divu	r2,r3,r2
 2004000:	108002a4 	muli	r2,r2,10
 2004004:	1885c83a 	sub	r2,r3,r2
 2004008:	10800c04 	addi	r2,r2,48
 200400c:	e0bff7c5 	stb	r2,-33(fp)
	d[8]=(alt_u32)temp/10%10+0x30;
 2004010:	e13ff417 	ldw	r4,-48(fp)
 2004014:	e17ff517 	ldw	r5,-44(fp)
 2004018:	200c3d00 	call	200c3d0 <__fixunsdfsi>
 200401c:	1007883a 	mov	r3,r2
 2004020:	00800284 	movi	r2,10
 2004024:	1887203a 	divu	r3,r3,r2
 2004028:	00800284 	movi	r2,10
 200402c:	1885203a 	divu	r2,r3,r2
 2004030:	108002a4 	muli	r2,r2,10
 2004034:	1885c83a 	sub	r2,r3,r2
 2004038:	10800c04 	addi	r2,r2,48
 200403c:	e0bff805 	stb	r2,-32(fp)
	d[9]=(alt_u32)temp%10+0x30;
 2004040:	e13ff417 	ldw	r4,-48(fp)
 2004044:	e17ff517 	ldw	r5,-44(fp)
 2004048:	200c3d00 	call	200c3d0 <__fixunsdfsi>
 200404c:	1007883a 	mov	r3,r2
 2004050:	00800284 	movi	r2,10
 2004054:	1885203a 	divu	r2,r3,r2
 2004058:	108002a4 	muli	r2,r2,10
 200405c:	1885c83a 	sub	r2,r3,r2
 2004060:	10800c04 	addi	r2,r2,48
 2004064:	e0bff845 	stb	r2,-31(fp)
	d[13]='\0';
 2004068:	e03ff945 	stb	zero,-27(fp)
	if(d[0]==0x30 && d[1]==0x30)
 200406c:	e0bff603 	ldbu	r2,-40(fp)
 2004070:	10803fcc 	andi	r2,r2,255
 2004074:	1080201c 	xori	r2,r2,128
 2004078:	10bfe004 	addi	r2,r2,-128
 200407c:	10800c18 	cmpnei	r2,r2,48
 2004080:	10000b1e 	bne	r2,zero,20040b0 <DJDaut+0x3f8>
 2004084:	e0bff643 	ldbu	r2,-39(fp)
 2004088:	10803fcc 	andi	r2,r2,255
 200408c:	1080201c 	xori	r2,r2,128
 2004090:	10bfe004 	addi	r2,r2,-128
 2004094:	10800c18 	cmpnei	r2,r2,48
 2004098:	1000051e 	bne	r2,zero,20040b0 <DJDaut+0x3f8>
		d[0]=d[1]=' ';
 200409c:	00800804 	movi	r2,32
 20040a0:	e0bff645 	stb	r2,-39(fp)
 20040a4:	e0bff643 	ldbu	r2,-39(fp)
 20040a8:	e0bff605 	stb	r2,-40(fp)
	d[6]=(alt_u32)temp/1000%10+0x30;
	d[7]=(alt_u32)temp/100%10+0x30;
	d[8]=(alt_u32)temp/10%10+0x30;
	d[9]=(alt_u32)temp%10+0x30;
	d[13]='\0';
	if(d[0]==0x30 && d[1]==0x30)
 20040ac:	00000806 	br	20040d0 <DJDaut+0x418>
		d[0]=d[1]=' ';
	else if(d[0]==0x30) d[0]=' ';
 20040b0:	e0bff603 	ldbu	r2,-40(fp)
 20040b4:	10803fcc 	andi	r2,r2,255
 20040b8:	1080201c 	xori	r2,r2,128
 20040bc:	10bfe004 	addi	r2,r2,-128
 20040c0:	10800c18 	cmpnei	r2,r2,48
 20040c4:	1000021e 	bne	r2,zero,20040d0 <DJDaut+0x418>
 20040c8:	00800804 	movi	r2,32
 20040cc:	e0bff605 	stb	r2,-40(fp)

	ili9320_ShowString(107,225,110,12,12,d,YELLOW,BLACK);
 20040d0:	e0bff604 	addi	r2,fp,-40
 20040d4:	00c00304 	movi	r3,12
 20040d8:	d8c00015 	stw	r3,0(sp)
 20040dc:	d8800115 	stw	r2,4(sp)
 20040e0:	00bff814 	movui	r2,65504
 20040e4:	d8800215 	stw	r2,8(sp)
 20040e8:	d8000315 	stw	zero,12(sp)
 20040ec:	01001ac4 	movi	r4,107
 20040f0:	01403844 	movi	r5,225
 20040f4:	01801b84 	movi	r6,110
 20040f8:	01c00304 	movi	r7,12
 20040fc:	200614c0 	call	200614c <ili9320_ShowString>
}
 2004100:	e037883a 	mov	sp,fp
 2004104:	dfc00117 	ldw	ra,4(sp)
 2004108:	df000017 	ldw	fp,0(sp)
 200410c:	dec00204 	addi	sp,sp,8
 2004110:	f800283a 	ret

02004114 <ReadDJD>:
double djd_Freq;
void ReadDJD(void)//
{
 2004114:	defffb04 	addi	sp,sp,-20
 2004118:	dfc00415 	stw	ra,16(sp)
 200411c:	df000315 	stw	fp,12(sp)
 2004120:	dc000215 	stw	r16,8(sp)
 2004124:	df000204 	addi	fp,sp,8
	alt_u32 d1,d2;
	d1=ReadTest;
 2004128:	00893904 	movi	r2,9444
 200412c:	10800037 	ldwio	r2,0(r2)
 2004130:	e0bfff15 	stw	r2,-4(fp)
	d2=ReadRef;
 2004134:	00893804 	movi	r2,9440
 2004138:	10800037 	ldwio	r2,0(r2)
 200413c:	e0bffe15 	stw	r2,-8(fp)
	djd_Freq=(d1*200000000.0f)/d2;
 2004140:	e13fff17 	ldw	r4,-4(fp)
 2004144:	200cc9c0 	call	200cc9c <__floatunsisf>
 2004148:	1009883a 	mov	r4,r2
 200414c:	01534ff4 	movhi	r5,19775
 2004150:	296f0804 	addi	r5,r5,-17376
 2004154:	200c7e80 	call	200c7e8 <__mulsf3>
 2004158:	1021883a 	mov	r16,r2
 200415c:	e13ffe17 	ldw	r4,-8(fp)
 2004160:	200cc9c0 	call	200cc9c <__floatunsisf>
 2004164:	8009883a 	mov	r4,r16
 2004168:	100b883a 	mov	r5,r2
 200416c:	200c9c80 	call	200c9c8 <__divsf3>
 2004170:	1009883a 	mov	r4,r2
 2004174:	200cc480 	call	200cc48 <__extendsfdf2>
 2004178:	1009883a 	mov	r4,r2
 200417c:	180b883a 	mov	r5,r3
 2004180:	d1203b15 	stw	r4,-32532(gp)
 2004184:	008080b4 	movhi	r2,514
 2004188:	109bd904 	addi	r2,r2,28516
 200418c:	11400015 	stw	r5,0(r2)
}
 2004190:	e037883a 	mov	sp,fp
 2004194:	dfc00217 	ldw	ra,8(sp)
 2004198:	df000117 	ldw	fp,4(sp)
 200419c:	dc000017 	ldw	r16,0(sp)
 20041a0:	dec00304 	addi	sp,sp,12
 20041a4:	f800283a 	ret

020041a8 <cp>:

double cp(void)
{
 20041a8:	defff504 	addi	sp,sp,-44
 20041ac:	dfc00a15 	stw	ra,40(sp)
 20041b0:	df000915 	stw	fp,36(sp)
 20041b4:	df000904 	addi	fp,sp,36
	double f;
	alt_u16 i,j;
	alt_u16 temp[10];
	j=0;
 20041b8:	e03ff70d 	sth	zero,-36(fp)
	for(i=0;i<500;i++)
 20041bc:	e03ff78d 	sth	zero,-34(fp)
 20041c0:	00002806 	br	2004264 <cp+0xbc>
		if(data_in[i+6]>=TRIG_DATA && data_in[i+5]<TRIG_DATA)
 20041c4:	e0bff78b 	ldhu	r2,-34(fp)
 20041c8:	10c00184 	addi	r3,r2,6
 20041cc:	008080f4 	movhi	r2,515
 20041d0:	10a10d04 	addi	r2,r2,-31692
 20041d4:	10c5883a 	add	r2,r2,r3
 20041d8:	10c00003 	ldbu	r3,0(r2)
 20041dc:	008080b4 	movhi	r2,514
 20041e0:	109ba044 	addi	r2,r2,28289
 20041e4:	10800003 	ldbu	r2,0(r2)
 20041e8:	18c03fcc 	andi	r3,r3,255
 20041ec:	10803fcc 	andi	r2,r2,255
 20041f0:	18801936 	bltu	r3,r2,2004258 <cp+0xb0>
 20041f4:	e0bff78b 	ldhu	r2,-34(fp)
 20041f8:	10c00144 	addi	r3,r2,5
 20041fc:	008080f4 	movhi	r2,515
 2004200:	10a10d04 	addi	r2,r2,-31692
 2004204:	10c5883a 	add	r2,r2,r3
 2004208:	10c00003 	ldbu	r3,0(r2)
 200420c:	008080b4 	movhi	r2,514
 2004210:	109ba044 	addi	r2,r2,28289
 2004214:	10800003 	ldbu	r2,0(r2)
 2004218:	18c03fcc 	andi	r3,r3,255
 200421c:	10803fcc 	andi	r2,r2,255
 2004220:	18800d2e 	bgeu	r3,r2,2004258 <cp+0xb0>
		{
			if(j<10)
 2004224:	e0bff70b 	ldhu	r2,-36(fp)
 2004228:	108002a8 	cmpgeui	r2,r2,10
 200422c:	10000a1e 	bne	r2,zero,2004258 <cp+0xb0>
			{
				temp[j]=i;
 2004230:	e0bff70b 	ldhu	r2,-36(fp)
 2004234:	1085883a 	add	r2,r2,r2
 2004238:	e0fff704 	addi	r3,fp,-36
 200423c:	10c5883a 	add	r2,r2,r3
 2004240:	10c00304 	addi	r3,r2,12
 2004244:	e0bff78b 	ldhu	r2,-34(fp)
 2004248:	1880000d 	sth	r2,0(r3)
				j++;
 200424c:	e0bff70b 	ldhu	r2,-36(fp)
 2004250:	10800044 	addi	r2,r2,1
 2004254:	e0bff70d 	sth	r2,-36(fp)
{
	double f;
	alt_u16 i,j;
	alt_u16 temp[10];
	j=0;
	for(i=0;i<500;i++)
 2004258:	e0bff78b 	ldhu	r2,-34(fp)
 200425c:	10800044 	addi	r2,r2,1
 2004260:	e0bff78d 	sth	r2,-34(fp)
 2004264:	e0bff78b 	ldhu	r2,-34(fp)
 2004268:	10807d30 	cmpltui	r2,r2,500
 200426c:	103fd51e 	bne	r2,zero,20041c4 <cp+0x1c>
			{
				temp[j]=i;
				j++;
			}
		}
	if(j>2) f=(temp[j-1]-temp[1])/(j-2);
 2004270:	e0bff70b 	ldhu	r2,-36(fp)
 2004274:	108000f0 	cmpltui	r2,r2,3
 2004278:	1000131e 	bne	r2,zero,20042c8 <cp+0x120>
 200427c:	e0bff70b 	ldhu	r2,-36(fp)
 2004280:	10bfffc4 	addi	r2,r2,-1
 2004284:	1085883a 	add	r2,r2,r2
 2004288:	e13ff704 	addi	r4,fp,-36
 200428c:	1105883a 	add	r2,r2,r4
 2004290:	10800304 	addi	r2,r2,12
 2004294:	1080000b 	ldhu	r2,0(r2)
 2004298:	10ffffcc 	andi	r3,r2,65535
 200429c:	e0bffa8b 	ldhu	r2,-22(fp)
 20042a0:	10bfffcc 	andi	r2,r2,65535
 20042a4:	1887c83a 	sub	r3,r3,r2
 20042a8:	e0bff70b 	ldhu	r2,-36(fp)
 20042ac:	10bfff84 	addi	r2,r2,-2
 20042b0:	1889283a 	div	r4,r3,r2
 20042b4:	200dbac0 	call	200dbac <__floatsidf>
 20042b8:	1009883a 	mov	r4,r2
 20042bc:	180b883a 	mov	r5,r3
 20042c0:	e13ff815 	stw	r4,-32(fp)
 20042c4:	e17ff915 	stw	r5,-28(fp)
	switch(LCKDIV)
 20042c8:	008080b4 	movhi	r2,514
 20042cc:	109bd704 	addi	r2,r2,28508
 20042d0:	10800003 	ldbu	r2,0(r2)
 20042d4:	10803fcc 	andi	r2,r2,255
 20042d8:	e0bfff15 	stw	r2,-4(fp)
 20042dc:	e0ffff17 	ldw	r3,-4(fp)
 20042e0:	188003e8 	cmpgeui	r2,r3,15
 20042e4:	1000bc1e 	bne	r2,zero,20045d8 <cp+0x430>
 20042e8:	e13fff17 	ldw	r4,-4(fp)
 20042ec:	e13fff17 	ldw	r4,-4(fp)
 20042f0:	2105883a 	add	r2,r4,r4
 20042f4:	1087883a 	add	r3,r2,r2
 20042f8:	00808034 	movhi	r2,512
 20042fc:	1090c304 	addi	r2,r2,17164
 2004300:	1885883a 	add	r2,r3,r2
 2004304:	10800017 	ldw	r2,0(r2)
 2004308:	1000683a 	jmp	r2
 200430c:	02004348 	cmpgei	r8,zero,269
 2004310:	02004374 	movhi	r8,269
 2004314:	020043a0 	cmpeqi	r8,zero,270
 2004318:	020043cc 	andi	r8,zero,271
 200431c:	020043f8 	rdprs	r8,zero,271
 2004320:	02004424 	muli	r8,zero,272
 2004324:	02004450 	cmplti	r8,zero,273
 2004328:	0200447c 	xorhi	r8,zero,273
 200432c:	020044a8 	cmpgeui	r8,zero,274
 2004330:	020044d4 	movui	r8,275
 2004334:	02004500 	call	200450 <OSCtxSw_SWITCH_PC+0x200410>
 2004338:	0200452c 	andhi	r8,zero,276
 200433c:	02004558 	cmpnei	r8,zero,277
 2004340:	02004584 	movi	r8,278
 2004344:	020045b0 	cmpltui	r8,zero,278
	{
		case 0:f=1250/f;break;
 2004348:	0009883a 	mov	r4,zero
 200434c:	01502534 	movhi	r5,16532
 2004350:	29620004 	addi	r5,r5,-30720
 2004354:	e1bff817 	ldw	r6,-32(fp)
 2004358:	e1fff917 	ldw	r7,-28(fp)
 200435c:	200d6240 	call	200d624 <__divdf3>
 2004360:	1009883a 	mov	r4,r2
 2004364:	180b883a 	mov	r5,r3
 2004368:	e13ff815 	stw	r4,-32(fp)
 200436c:	e17ff915 	stw	r5,-28(fp)
 2004370:	00009906 	br	20045d8 <cp+0x430>
		case 1:f=2500/f;break;
 2004374:	0009883a 	mov	r4,zero
 2004378:	01502934 	movhi	r5,16548
 200437c:	29620004 	addi	r5,r5,-30720
 2004380:	e1bff817 	ldw	r6,-32(fp)
 2004384:	e1fff917 	ldw	r7,-28(fp)
 2004388:	200d6240 	call	200d624 <__divdf3>
 200438c:	1009883a 	mov	r4,r2
 2004390:	180b883a 	mov	r5,r3
 2004394:	e13ff815 	stw	r4,-32(fp)
 2004398:	e17ff915 	stw	r5,-28(fp)
 200439c:	00008e06 	br	20045d8 <cp+0x430>
		case 2:f=5000/f;break;
 20043a0:	0009883a 	mov	r4,zero
 20043a4:	01502d34 	movhi	r5,16564
 20043a8:	29620004 	addi	r5,r5,-30720
 20043ac:	e1bff817 	ldw	r6,-32(fp)
 20043b0:	e1fff917 	ldw	r7,-28(fp)
 20043b4:	200d6240 	call	200d624 <__divdf3>
 20043b8:	1009883a 	mov	r4,r2
 20043bc:	180b883a 	mov	r5,r3
 20043c0:	e13ff815 	stw	r4,-32(fp)
 20043c4:	e17ff915 	stw	r5,-28(fp)
 20043c8:	00008306 	br	20045d8 <cp+0x430>
		case 3:f=12500/f;break;
 20043cc:	0009883a 	mov	r4,zero
 20043d0:	01503234 	movhi	r5,16584
 20043d4:	295a8004 	addi	r5,r5,27136
 20043d8:	e1bff817 	ldw	r6,-32(fp)
 20043dc:	e1fff917 	ldw	r7,-28(fp)
 20043e0:	200d6240 	call	200d624 <__divdf3>
 20043e4:	1009883a 	mov	r4,r2
 20043e8:	180b883a 	mov	r5,r3
 20043ec:	e13ff815 	stw	r4,-32(fp)
 20043f0:	e17ff915 	stw	r5,-28(fp)
 20043f4:	00007806 	br	20045d8 <cp+0x430>
		case 4:f=25000/f;break;
 20043f8:	0009883a 	mov	r4,zero
 20043fc:	01503634 	movhi	r5,16600
 2004400:	295a8004 	addi	r5,r5,27136
 2004404:	e1bff817 	ldw	r6,-32(fp)
 2004408:	e1fff917 	ldw	r7,-28(fp)
 200440c:	200d6240 	call	200d624 <__divdf3>
 2004410:	1009883a 	mov	r4,r2
 2004414:	180b883a 	mov	r5,r3
 2004418:	e13ff815 	stw	r4,-32(fp)
 200441c:	e17ff915 	stw	r5,-28(fp)
 2004420:	00006d06 	br	20045d8 <cp+0x430>
		case 5:f=50000/f;break;
 2004424:	0009883a 	mov	r4,zero
 2004428:	01503a34 	movhi	r5,16616
 200442c:	295a8004 	addi	r5,r5,27136
 2004430:	e1bff817 	ldw	r6,-32(fp)
 2004434:	e1fff917 	ldw	r7,-28(fp)
 2004438:	200d6240 	call	200d624 <__divdf3>
 200443c:	1009883a 	mov	r4,r2
 2004440:	180b883a 	mov	r5,r3
 2004444:	e13ff815 	stw	r4,-32(fp)
 2004448:	e17ff915 	stw	r5,-28(fp)
 200444c:	00006206 	br	20045d8 <cp+0x430>
		case 6:f=125000/f;break;
 2004450:	0009883a 	mov	r4,zero
 2004454:	01503ff4 	movhi	r5,16639
 2004458:	29612004 	addi	r5,r5,-31616
 200445c:	e1bff817 	ldw	r6,-32(fp)
 2004460:	e1fff917 	ldw	r7,-28(fp)
 2004464:	200d6240 	call	200d624 <__divdf3>
 2004468:	1009883a 	mov	r4,r2
 200446c:	180b883a 	mov	r5,r3
 2004470:	e13ff815 	stw	r4,-32(fp)
 2004474:	e17ff915 	stw	r5,-28(fp)
 2004478:	00005706 	br	20045d8 <cp+0x430>
		case 7:f=250000/f;break;
 200447c:	0009883a 	mov	r4,zero
 2004480:	015043f4 	movhi	r5,16655
 2004484:	29612004 	addi	r5,r5,-31616
 2004488:	e1bff817 	ldw	r6,-32(fp)
 200448c:	e1fff917 	ldw	r7,-28(fp)
 2004490:	200d6240 	call	200d624 <__divdf3>
 2004494:	1009883a 	mov	r4,r2
 2004498:	180b883a 	mov	r5,r3
 200449c:	e13ff815 	stw	r4,-32(fp)
 20044a0:	e17ff915 	stw	r5,-28(fp)
 20044a4:	00004c06 	br	20045d8 <cp+0x430>
		case 8:f=500000/f;break;
 20044a8:	0009883a 	mov	r4,zero
 20044ac:	015047f4 	movhi	r5,16671
 20044b0:	29612004 	addi	r5,r5,-31616
 20044b4:	e1bff817 	ldw	r6,-32(fp)
 20044b8:	e1fff917 	ldw	r7,-28(fp)
 20044bc:	200d6240 	call	200d624 <__divdf3>
 20044c0:	1009883a 	mov	r4,r2
 20044c4:	180b883a 	mov	r5,r3
 20044c8:	e13ff815 	stw	r4,-32(fp)
 20044cc:	e17ff915 	stw	r5,-28(fp)
 20044d0:	00004106 	br	20045d8 <cp+0x430>
		case 9:f=1250000/f;break;
 20044d4:	0009883a 	mov	r4,zero
 20044d8:	01504cf4 	movhi	r5,16691
 20044dc:	2944b404 	addi	r5,r5,4816
 20044e0:	e1bff817 	ldw	r6,-32(fp)
 20044e4:	e1fff917 	ldw	r7,-28(fp)
 20044e8:	200d6240 	call	200d624 <__divdf3>
 20044ec:	1009883a 	mov	r4,r2
 20044f0:	180b883a 	mov	r5,r3
 20044f4:	e13ff815 	stw	r4,-32(fp)
 20044f8:	e17ff915 	stw	r5,-28(fp)
 20044fc:	00003606 	br	20045d8 <cp+0x430>
		case 10:f=2500000/f;break;
 2004500:	0009883a 	mov	r4,zero
 2004504:	015050f4 	movhi	r5,16707
 2004508:	2944b404 	addi	r5,r5,4816
 200450c:	e1bff817 	ldw	r6,-32(fp)
 2004510:	e1fff917 	ldw	r7,-28(fp)
 2004514:	200d6240 	call	200d624 <__divdf3>
 2004518:	1009883a 	mov	r4,r2
 200451c:	180b883a 	mov	r5,r3
 2004520:	e13ff815 	stw	r4,-32(fp)
 2004524:	e17ff915 	stw	r5,-28(fp)
 2004528:	00002b06 	br	20045d8 <cp+0x430>
		case 11:f=5000000/f;break;
 200452c:	0009883a 	mov	r4,zero
 2004530:	015054f4 	movhi	r5,16723
 2004534:	2944b404 	addi	r5,r5,4816
 2004538:	e1bff817 	ldw	r6,-32(fp)
 200453c:	e1fff917 	ldw	r7,-28(fp)
 2004540:	200d6240 	call	200d624 <__divdf3>
 2004544:	1009883a 	mov	r4,r2
 2004548:	180b883a 	mov	r5,r3
 200454c:	e13ff815 	stw	r4,-32(fp)
 2004550:	e17ff915 	stw	r5,-28(fp)
 2004554:	00002006 	br	20045d8 <cp+0x430>
		case 12:f=12500000/f;break;
 2004558:	0009883a 	mov	r4,zero
 200455c:	01505a34 	movhi	r5,16744
 2004560:	2975e104 	addi	r5,r5,-10364
 2004564:	e1bff817 	ldw	r6,-32(fp)
 2004568:	e1fff917 	ldw	r7,-28(fp)
 200456c:	200d6240 	call	200d624 <__divdf3>
 2004570:	1009883a 	mov	r4,r2
 2004574:	180b883a 	mov	r5,r3
 2004578:	e13ff815 	stw	r4,-32(fp)
 200457c:	e17ff915 	stw	r5,-28(fp)
 2004580:	00001506 	br	20045d8 <cp+0x430>
		case 13:f=25000000/f;break;
 2004584:	0009883a 	mov	r4,zero
 2004588:	01505e34 	movhi	r5,16760
 200458c:	2975e104 	addi	r5,r5,-10364
 2004590:	e1bff817 	ldw	r6,-32(fp)
 2004594:	e1fff917 	ldw	r7,-28(fp)
 2004598:	200d6240 	call	200d624 <__divdf3>
 200459c:	1009883a 	mov	r4,r2
 20045a0:	180b883a 	mov	r5,r3
 20045a4:	e13ff815 	stw	r4,-32(fp)
 20045a8:	e17ff915 	stw	r5,-28(fp)
 20045ac:	00000a06 	br	20045d8 <cp+0x430>
		case 14:f=50000000/f;break;
 20045b0:	0009883a 	mov	r4,zero
 20045b4:	01506234 	movhi	r5,16776
 20045b8:	2975e104 	addi	r5,r5,-10364
 20045bc:	e1bff817 	ldw	r6,-32(fp)
 20045c0:	e1fff917 	ldw	r7,-28(fp)
 20045c4:	200d6240 	call	200d624 <__divdf3>
 20045c8:	1009883a 	mov	r4,r2
 20045cc:	180b883a 	mov	r5,r3
 20045d0:	e13ff815 	stw	r4,-32(fp)
 20045d4:	e17ff915 	stw	r5,-28(fp)
		default:break;
	}
	return(f);
 20045d8:	e17ff817 	ldw	r5,-32(fp)
 20045dc:	e1bff917 	ldw	r6,-28(fp)
 20045e0:	2807883a 	mov	r3,r5
 20045e4:	3009883a 	mov	r4,r6
}
 20045e8:	1805883a 	mov	r2,r3
 20045ec:	2007883a 	mov	r3,r4
 20045f0:	e037883a 	mov	sp,fp
 20045f4:	dfc00117 	ldw	ra,4(sp)
 20045f8:	df000017 	ldw	fp,0(sp)
 20045fc:	dec00204 	addi	sp,sp,8
 2004600:	f800283a 	ret

02004604 <Flash_ReadData>:
#include "flash.h"
#include "ili9320.h"
#include "app.h"

void Flash_ReadData(void)
{
 2004604:	defff404 	addi	sp,sp,-48
 2004608:	dfc00b15 	stw	ra,44(sp)
 200460c:	df000a15 	stw	fp,40(sp)
 2004610:	df000a04 	addi	fp,sp,40
	alt_flash_fd* fd;
	int ret_code=0 ;
 2004614:	e03ffe15 	stw	zero,-8(fp)

	//FLASH
	fd = alt_flash_open_dev(FLASH);
 2004618:	010080b4 	movhi	r4,514
 200461c:	210f6704 	addi	r4,r4,15772
 2004620:	2016ea00 	call	2016ea0 <alt_flash_open_dev>
 2004624:	e0bfff15 	stw	r2,-4(fp)
	if(fd)
 2004628:	e0bfff17 	ldw	r2,-4(fp)
 200462c:	1005003a 	cmpeq	r2,r2,zero
 2004630:	1000261e 	bne	r2,zero,20046cc <Flash_ReadData+0xc8>
 2004634:	e0bfff17 	ldw	r2,-4(fp)
 2004638:	e0bffa15 	stw	r2,-24(fp)
 200463c:	008001f4 	movhi	r2,7
 2004640:	e0bffb15 	stw	r2,-20(fp)
 2004644:	008080f4 	movhi	r2,515
 2004648:	10a10d04 	addi	r2,r2,-31692
 200464c:	e0bffc15 	stw	r2,-16(fp)
 2004650:	00810004 	movi	r2,1024
 2004654:	e0bffd15 	stw	r2,-12(fp)
 */
static __inline__ int __attribute__ ((always_inline)) alt_read_flash( 
                                      alt_flash_fd* fd, int offset, 
                                      void* dest_addr, int length )
{
  return fd->read( fd, offset, dest_addr, length );
 2004658:	e0bffa17 	ldw	r2,-24(fp)
 200465c:	10800617 	ldw	r2,24(r2)
 2004660:	e13ffa17 	ldw	r4,-24(fp)
 2004664:	e17ffb17 	ldw	r5,-20(fp)
 2004668:	e1bffc17 	ldw	r6,-16(fp)
 200466c:	e1fffd17 	ldw	r7,-12(fp)
 2004670:	103ee83a 	callr	r2
	{
		//FLASH,0
		//ili9320_ShowString(100,120,180,16,16,"Reading...",BLUE,WHITE);
		ret_code = alt_read_flash(fd,FLASH_OFFSET,data_in,1024);
 2004674:	e0bffe15 	stw	r2,-8(fp)
		if(ret_code != 0)
 2004678:	e0bffe17 	ldw	r2,-8(fp)
 200467c:	1005003a 	cmpeq	r2,r2,zero
 2004680:	1000221e 	bne	r2,zero,200470c <Flash_ReadData+0x108>
		{
			//printf("Can't read flash device\n");
			ili9320_ShowString(100,100,180,16,16,"Can't read flash device",RED,WHITE);
 2004684:	00c080b4 	movhi	r3,514
 2004688:	18cf6b04 	addi	r3,r3,15788
 200468c:	00800404 	movi	r2,16
 2004690:	d8800015 	stw	r2,0(sp)
 2004694:	d8c00115 	stw	r3,4(sp)
 2004698:	00be0014 	movui	r2,63488
 200469c:	d8800215 	stw	r2,8(sp)
 20046a0:	00bfffd4 	movui	r2,65535
 20046a4:	d8800315 	stw	r2,12(sp)
 20046a8:	01001904 	movi	r4,100
 20046ac:	01401904 	movi	r5,100
 20046b0:	01802d04 	movi	r6,180
 20046b4:	01c00404 	movi	r7,16
 20046b8:	200614c0 	call	200614c <ili9320_ShowString>
			delay_ms(1000);
 20046bc:	0100fa04 	movi	r4,1000
 20046c0:	20049840 	call	2004984 <delay_ms>
			exit(-1);
 20046c4:	013fffc4 	movi	r4,-1
 20046c8:	200ea400 	call	200ea40 <exit>

	}
	else
	{
		//printf("Can't open flash device\n");
		ili9320_ShowString(100,100,180,16,16,"Can't open flash device",RED,WHITE);
 20046cc:	00c080b4 	movhi	r3,514
 20046d0:	18cf7104 	addi	r3,r3,15812
 20046d4:	00800404 	movi	r2,16
 20046d8:	d8800015 	stw	r2,0(sp)
 20046dc:	d8c00115 	stw	r3,4(sp)
 20046e0:	00be0014 	movui	r2,63488
 20046e4:	d8800215 	stw	r2,8(sp)
 20046e8:	00bfffd4 	movui	r2,65535
 20046ec:	d8800315 	stw	r2,12(sp)
 20046f0:	01001904 	movi	r4,100
 20046f4:	01401904 	movi	r5,100
 20046f8:	01802d04 	movi	r6,180
 20046fc:	01c00404 	movi	r7,16
 2004700:	200614c0 	call	200614c <ili9320_ShowString>
		delay_ms(1000);
 2004704:	0100fa04 	movi	r4,1000
 2004708:	20049840 	call	2004984 <delay_ms>
	}
	alt_flash_close_dev(fd);
 200470c:	e13fff17 	ldw	r4,-4(fp)
 2004710:	2016f1c0 	call	2016f1c <alt_flash_close_dev>

}
 2004714:	e037883a 	mov	sp,fp
 2004718:	dfc00117 	ldw	ra,4(sp)
 200471c:	df000017 	ldw	fp,0(sp)
 2004720:	dec00204 	addi	sp,sp,8
 2004724:	f800283a 	ret

02004728 <Flash_WriteData>:


void Flash_WriteData(void)
{
 2004728:	defff004 	addi	sp,sp,-64
 200472c:	dfc00f15 	stw	ra,60(sp)
 2004730:	df000e15 	stw	fp,56(sp)
 2004734:	df000e04 	addi	fp,sp,56
	alt_flash_fd* fd;
	int ret_code=0 ;
 2004738:	e03ffe15 	stw	zero,-8(fp)

	fd = alt_flash_open_dev(FLASH);
 200473c:	010080b4 	movhi	r4,514
 2004740:	210f6704 	addi	r4,r4,15772
 2004744:	2016ea00 	call	2016ea0 <alt_flash_open_dev>
 2004748:	e0bfff15 	stw	r2,-4(fp)
	if(fd)
 200474c:	e0bfff17 	ldw	r2,-4(fp)
 2004750:	1005003a 	cmpeq	r2,r2,zero
 2004754:	1000741e 	bne	r2,zero,2004928 <Flash_WriteData+0x200>
 2004758:	e0bfff17 	ldw	r2,-4(fp)
 200475c:	e0bffa15 	stw	r2,-24(fp)
 2004760:	008001f4 	movhi	r2,7
 2004764:	e0bffb15 	stw	r2,-20(fp)
 2004768:	00800074 	movhi	r2,1
 200476c:	e0bffc15 	stw	r2,-16(fp)
 */
static __inline__ int __attribute__ ((always_inline)) alt_erase_flash_block( 
                                      alt_flash_fd* fd, int offset, int length) 
{
  int ret_code;
  ret_code = fd->erase_block( fd, offset );
 2004770:	e0bffa17 	ldw	r2,-24(fp)
 2004774:	10800817 	ldw	r2,32(r2)
 2004778:	e13ffa17 	ldw	r4,-24(fp)
 200477c:	e17ffb17 	ldw	r5,-20(fp)
 2004780:	103ee83a 	callr	r2
 2004784:	e0bffd15 	stw	r2,-12(fp)
  
  if(!ret_code)
 2004788:	e0bffd17 	ldw	r2,-12(fp)
 200478c:	1004c03a 	cmpne	r2,r2,zero
 2004790:	1000071e 	bne	r2,zero,20047b0 <Flash_WriteData+0x88>
      alt_dcache_flush((alt_u8*)fd->base_addr + offset, length);
 2004794:	e0bffa17 	ldw	r2,-24(fp)
 2004798:	10800a17 	ldw	r2,40(r2)
 200479c:	1007883a 	mov	r3,r2
 20047a0:	e0bffb17 	ldw	r2,-20(fp)
 20047a4:	1889883a 	add	r4,r3,r2
 20047a8:	e17ffc17 	ldw	r5,-16(fp)
 20047ac:	2016d900 	call	2016d90 <alt_dcache_flush>

  return ret_code;
 20047b0:	e0bffd17 	ldw	r2,-12(fp)
	{
		//
		ret_code =alt_erase_flash_block(fd,
 20047b4:	e0bffe15 	stw	r2,-8(fp)
			FLASH_OFFSET,
			Block_Size);

		if(ret_code != 0)
 20047b8:	e0bffe17 	ldw	r2,-8(fp)
 20047bc:	1005003a 	cmpeq	r2,r2,zero
 20047c0:	1000121e 	bne	r2,zero,200480c <Flash_WriteData+0xe4>
		{
			ili9320_ShowString(100,100,180,16,16,"Can't erase flash block",RED,WHITE);
 20047c4:	00c080b4 	movhi	r3,514
 20047c8:	18cf7704 	addi	r3,r3,15836
 20047cc:	00800404 	movi	r2,16
 20047d0:	d8800015 	stw	r2,0(sp)
 20047d4:	d8c00115 	stw	r3,4(sp)
 20047d8:	00be0014 	movui	r2,63488
 20047dc:	d8800215 	stw	r2,8(sp)
 20047e0:	00bfffd4 	movui	r2,65535
 20047e4:	d8800315 	stw	r2,12(sp)
 20047e8:	01001904 	movi	r4,100
 20047ec:	01401904 	movi	r5,100
 20047f0:	01802d04 	movi	r6,180
 20047f4:	01c00404 	movi	r7,16
 20047f8:	200614c0 	call	200614c <ili9320_ShowString>
			delay_ms(1000);
 20047fc:	0100fa04 	movi	r4,1000
 2004800:	20049840 	call	2004984 <delay_ms>
			exit(-1);
 2004804:	013fffc4 	movi	r4,-1
 2004808:	200ea400 	call	200ea40 <exit>
		}
		else
		{

			ili9320_ShowString(100,120,180,16,16,"Saving of data ...",BLUE,WHITE);
 200480c:	00c080b4 	movhi	r3,514
 2004810:	18cf7d04 	addi	r3,r3,15860
 2004814:	00800404 	movi	r2,16
 2004818:	d8800015 	stw	r2,0(sp)
 200481c:	d8c00115 	stw	r3,4(sp)
 2004820:	008007c4 	movi	r2,31
 2004824:	d8800215 	stw	r2,8(sp)
 2004828:	00bfffd4 	movui	r2,65535
 200482c:	d8800315 	stw	r2,12(sp)
 2004830:	01001904 	movi	r4,100
 2004834:	01401e04 	movi	r5,120
 2004838:	01802d04 	movi	r6,180
 200483c:	01c00404 	movi	r7,16
 2004840:	200614c0 	call	200614c <ili9320_ShowString>
 2004844:	e0bfff17 	ldw	r2,-4(fp)
 2004848:	e0bff615 	stw	r2,-40(fp)
 200484c:	008001f4 	movhi	r2,7
 2004850:	e0bff715 	stw	r2,-36(fp)
 2004854:	008080f4 	movhi	r2,515
 2004858:	10a10d04 	addi	r2,r2,-31692
 200485c:	e0bff815 	stw	r2,-32(fp)
 2004860:	00810004 	movi	r2,1024
 2004864:	e0bff915 	stw	r2,-28(fp)
                                                           alt_flash_fd* fd, 
                                                           int offset, 
                                                           const void* src_addr, 
                                                           int length )
{
  return fd->write( fd, offset, src_addr, length );
 2004868:	e0bff617 	ldw	r2,-40(fp)
 200486c:	10800517 	ldw	r2,20(r2)
 2004870:	e13ff617 	ldw	r4,-40(fp)
 2004874:	e17ff717 	ldw	r5,-36(fp)
 2004878:	e1bff817 	ldw	r6,-32(fp)
 200487c:	e1fff917 	ldw	r7,-28(fp)
 2004880:	103ee83a 	callr	r2
			//FLASH0
			ret_code = alt_write_flash(fd,FLASH_OFFSET,data_in,1024);
 2004884:	e0bffe15 	stw	r2,-8(fp)
			delay_ms(500);
 2004888:	01007d04 	movi	r4,500
 200488c:	20049840 	call	2004984 <delay_ms>
			if(ret_code != 0)
 2004890:	e0bffe17 	ldw	r2,-8(fp)
 2004894:	1005003a 	cmpeq	r2,r2,zero
 2004898:	1000121e 	bne	r2,zero,20048e4 <Flash_WriteData+0x1bc>
			{
				ili9320_ShowString(100,100,180,16,16,"Can't write flash device",RED,WHITE);
 200489c:	00c080b4 	movhi	r3,514
 20048a0:	18cf8204 	addi	r3,r3,15880
 20048a4:	00800404 	movi	r2,16
 20048a8:	d8800015 	stw	r2,0(sp)
 20048ac:	d8c00115 	stw	r3,4(sp)
 20048b0:	00be0014 	movui	r2,63488
 20048b4:	d8800215 	stw	r2,8(sp)
 20048b8:	00bfffd4 	movui	r2,65535
 20048bc:	d8800315 	stw	r2,12(sp)
 20048c0:	01001904 	movi	r4,100
 20048c4:	01401904 	movi	r5,100
 20048c8:	01802d04 	movi	r6,180
 20048cc:	01c00404 	movi	r7,16
 20048d0:	200614c0 	call	200614c <ili9320_ShowString>
				delay_ms(1000);
 20048d4:	0100fa04 	movi	r4,1000
 20048d8:	20049840 	call	2004984 <delay_ms>
				exit(-1);
 20048dc:	013fffc4 	movi	r4,-1
 20048e0:	200ea400 	call	200ea40 <exit>
			}
			else
			{
				ili9320_ShowString(100,120,180,16,16,"Save successfully ",BLUE,WHITE);
 20048e4:	00c080b4 	movhi	r3,514
 20048e8:	18cf8904 	addi	r3,r3,15908
 20048ec:	00800404 	movi	r2,16
 20048f0:	d8800015 	stw	r2,0(sp)
 20048f4:	d8c00115 	stw	r3,4(sp)
 20048f8:	008007c4 	movi	r2,31
 20048fc:	d8800215 	stw	r2,8(sp)
 2004900:	00bfffd4 	movui	r2,65535
 2004904:	d8800315 	stw	r2,12(sp)
 2004908:	01001904 	movi	r4,100
 200490c:	01401e04 	movi	r5,120
 2004910:	01802d04 	movi	r6,180
 2004914:	01c00404 	movi	r7,16
 2004918:	200614c0 	call	200614c <ili9320_ShowString>
				delay_ms(500);
 200491c:	01007d04 	movi	r4,500
 2004920:	20049840 	call	2004984 <delay_ms>
 2004924:	00001006 	br	2004968 <Flash_WriteData+0x240>
			}
		}
	}
	else
	{
		ili9320_ShowString(100,100,180,16,16,"Can't open flash device",RED,WHITE);
 2004928:	00c080b4 	movhi	r3,514
 200492c:	18cf7104 	addi	r3,r3,15812
 2004930:	00800404 	movi	r2,16
 2004934:	d8800015 	stw	r2,0(sp)
 2004938:	d8c00115 	stw	r3,4(sp)
 200493c:	00be0014 	movui	r2,63488
 2004940:	d8800215 	stw	r2,8(sp)
 2004944:	00bfffd4 	movui	r2,65535
 2004948:	d8800315 	stw	r2,12(sp)
 200494c:	01001904 	movi	r4,100
 2004950:	01401904 	movi	r5,100
 2004954:	01802d04 	movi	r6,180
 2004958:	01c00404 	movi	r7,16
 200495c:	200614c0 	call	200614c <ili9320_ShowString>
		delay_ms(1000);
 2004960:	0100fa04 	movi	r4,1000
 2004964:	20049840 	call	2004984 <delay_ms>
	}

	alt_flash_close_dev(fd);
 2004968:	e13fff17 	ldw	r4,-4(fp)
 200496c:	2016f1c0 	call	2016f1c <alt_flash_close_dev>
}
 2004970:	e037883a 	mov	sp,fp
 2004974:	dfc00117 	ldw	ra,4(sp)
 2004978:	df000017 	ldw	fp,0(sp)
 200497c:	dec00204 	addi	sp,sp,8
 2004980:	f800283a 	ret

02004984 <delay_ms>:
//LCD
//
_lcd_dev lcddev;

void delay_ms(alt_u16 n)
{
 2004984:	defffd04 	addi	sp,sp,-12
 2004988:	dfc00215 	stw	ra,8(sp)
 200498c:	df000115 	stw	fp,4(sp)
 2004990:	df000104 	addi	fp,sp,4
 2004994:	e13fff0d 	sth	r4,-4(fp)
	usleep(n*1000);
 2004998:	e0bfff0b 	ldhu	r2,-4(fp)
 200499c:	1080fa24 	muli	r2,r2,1000
 20049a0:	1009883a 	mov	r4,r2
 20049a4:	20176780 	call	2017678 <usleep>
}
 20049a8:	e037883a 	mov	sp,fp
 20049ac:	dfc00117 	ldw	ra,4(sp)
 20049b0:	df000017 	ldw	fp,0(sp)
 20049b4:	dec00204 	addi	sp,sp,8
 20049b8:	f800283a 	ret

020049bc <LCD_WriteReg>:
*                  - LCD_RegValue: .
* Output         : None
* Return         : None
*******************************************************************************/
void LCD_WriteReg(alt_u8 LCD_Reg,alt_u16 LCD_RegValue)
{
 20049bc:	defffd04 	addi	sp,sp,-12
 20049c0:	df000215 	stw	fp,8(sp)
 20049c4:	df000204 	addi	fp,sp,8
 20049c8:	e13ffe05 	stb	r4,-8(fp)
 20049cc:	e17fff0d 	sth	r5,-4(fp)
	/* Write 16-bit Index, then Write Reg */
	WriteREG(LCD_Reg);
 20049d0:	e0fffe03 	ldbu	r3,-8(fp)
 20049d4:	00893604 	movi	r2,9432
 20049d8:	10c00035 	stwio	r3,0(r2)
	/* Write 16-bit Reg */
	WriteRAM(LCD_RegValue);
 20049dc:	e0ffff0b 	ldhu	r3,-4(fp)
 20049e0:	00893704 	movi	r2,9436
 20049e4:	10c00035 	stwio	r3,0(r2)
}
 20049e8:	e037883a 	mov	sp,fp
 20049ec:	df000017 	ldw	fp,0(sp)
 20049f0:	dec00104 	addi	sp,sp,4
 20049f4:	f800283a 	ret

020049f8 <LCD_ReadReg>:
* Input          : None
* Output         : None
* Return         : LCD Register Value.
*******************************************************************************/
alt_u16 LCD_ReadReg(alt_u8 LCD_Reg)
{
 20049f8:	defffd04 	addi	sp,sp,-12
 20049fc:	df000215 	stw	fp,8(sp)
 2004a00:	df000204 	addi	fp,sp,8
 2004a04:	e13fff05 	stb	r4,-4(fp)
  alt_u16 temp;
  /* Write 16-bit Index (then Read Reg) */
  WriteREG(LCD_Reg);
 2004a08:	e0ffff03 	ldbu	r3,-4(fp)
 2004a0c:	00893604 	movi	r2,9432
 2004a10:	10c00035 	stwio	r3,0(r2)
  temp = ReadRAM;
 2004a14:	00893504 	movi	r2,9428
 2004a18:	10800037 	ldwio	r2,0(r2)
 2004a1c:	e0bffe0d 	sth	r2,-8(fp)

   temp = ReadRAM;
 2004a20:	00893504 	movi	r2,9428
 2004a24:	10800037 	ldwio	r2,0(r2)
 2004a28:	e0bffe0d 	sth	r2,-8(fp)
  /* Read 16-bit Reg */
  return temp;
 2004a2c:	e0bffe0b 	ldhu	r2,-8(fp)
}
 2004a30:	e037883a 	mov	sp,fp
 2004a34:	df000017 	ldw	fp,0(sp)
 2004a38:	dec00104 	addi	sp,sp,4
 2004a3c:	f800283a 	ret

02004a40 <LCD_WriteRAM_Prepare>:
* Input          : None
* Output         : None
* Return         : None
*******************************************************************************/
void LCD_WriteRAM_Prepare(void)
{
 2004a40:	deffff04 	addi	sp,sp,-4
 2004a44:	df000015 	stw	fp,0(sp)
 2004a48:	d839883a 	mov	fp,sp
	WriteREG(R34);
 2004a4c:	00c93604 	movi	r3,9432
 2004a50:	00800884 	movi	r2,34
 2004a54:	18800035 	stwio	r2,0(r3)
}
 2004a58:	e037883a 	mov	sp,fp
 2004a5c:	df000017 	ldw	fp,0(sp)
 2004a60:	dec00104 	addi	sp,sp,4
 2004a64:	f800283a 	ret

02004a68 <LCD_ReadRAM>:
* Input          : None
* Output         : None
* Return         : LCD RAM Value.
*******************************************************************************/
alt_u16 LCD_ReadRAM(void)
{
 2004a68:	defffe04 	addi	sp,sp,-8
 2004a6c:	df000115 	stw	fp,4(sp)
 2004a70:	df000104 	addi	fp,sp,4
	alt_u16 dummy;
	/* Write 16-bit Index (then Read Reg) */
	WriteREG(R34); /* Select GRAM Reg */
 2004a74:	00c93604 	movi	r3,9432
 2004a78:	00800884 	movi	r2,34
 2004a7c:	18800035 	stwio	r2,0(r3)
	/* Read 16-bit Reg */
	dummy = ReadRAM;
 2004a80:	00893504 	movi	r2,9428
 2004a84:	10800037 	ldwio	r2,0(r2)
 2004a88:	e0bfff0d 	sth	r2,-4(fp)
	dummy = ReadRAM;
 2004a8c:	00893504 	movi	r2,9428
 2004a90:	10800037 	ldwio	r2,0(r2)
 2004a94:	e0bfff0d 	sth	r2,-4(fp)
	return dummy;
 2004a98:	e0bfff0b 	ldhu	r2,-4(fp)
}
 2004a9c:	e037883a 	mov	sp,fp
 2004aa0:	df000017 	ldw	fp,0(sp)
 2004aa4:	dec00104 	addi	sp,sp,4
 2004aa8:	f800283a 	ret

02004aac <ili9320_Initializtion>:
* 
*     
* ili9320_Initializtion();
****************************************************************************/
void ili9320_Initializtion(void)
{
 2004aac:	defffe04 	addi	sp,sp,-8
 2004ab0:	dfc00115 	stw	ra,4(sp)
 2004ab4:	df000015 	stw	fp,0(sp)
 2004ab8:	d839883a 	mov	fp,sp

	LCD_LED(0);
 2004abc:	00893404 	movi	r2,9424
 2004ac0:	10000035 	stwio	zero,0(r2)
	LCD_WriteReg(0x0000,0x0001);
 2004ac4:	0009883a 	mov	r4,zero
 2004ac8:	01400044 	movi	r5,1
 2004acc:	20049bc0 	call	20049bc <LCD_WriteReg>
	delay_ms(50); // delay 50 ms 
 2004ad0:	01000c84 	movi	r4,50
 2004ad4:	20049840 	call	2004984 <delay_ms>
	lcddev.id = LCD_ReadReg(0x0000);
 2004ad8:	0009883a 	mov	r4,zero
 2004adc:	20049f80 	call	20049f8 <LCD_ReadReg>
 2004ae0:	1007883a 	mov	r3,r2
 2004ae4:	008080b4 	movhi	r2,514
 2004ae8:	109bdb04 	addi	r2,r2,28524
 2004aec:	10c0000d 	sth	r3,0(r2)
	if(lcddev.id==0x8999)	   //ICSSD1289
 2004af0:	008080b4 	movhi	r2,514
 2004af4:	109bdb04 	addi	r2,r2,28524
 2004af8:	1080000b 	ldhu	r2,0(r2)
 2004afc:	10ffffcc 	andi	r3,r2,65535
 2004b00:	00a26654 	movui	r2,35225
 2004b04:	1880621e 	bne	r3,r2,2004c90 <ili9320_Initializtion+0x1e4>
	{
		//************* Start Initial Sequence **********//
		LCD_WriteReg(0x00, 0x0001); // Start internal OSC.
 2004b08:	0009883a 	mov	r4,zero
 2004b0c:	01400044 	movi	r5,1
 2004b10:	20049bc0 	call	20049bc <LCD_WriteReg>
		LCD_WriteReg(0x01, 0x3B3F); // Driver output control, RL=0;REV=1;GD=1;BGR=0;SM=0;TB=1
 2004b14:	01000044 	movi	r4,1
 2004b18:	014ecfc4 	movi	r5,15167
 2004b1c:	20049bc0 	call	20049bc <LCD_WriteReg>
		LCD_WriteReg(0x02, 0x0600); // set 1 line inversion
 2004b20:	01000084 	movi	r4,2
 2004b24:	01418004 	movi	r5,1536
 2004b28:	20049bc0 	call	20049bc <LCD_WriteReg>
		//************* Power control setup ************/
		LCD_WriteReg(0x0C, 0x0007); // Adjust VCIX2 output voltage
 2004b2c:	01000304 	movi	r4,12
 2004b30:	014001c4 	movi	r5,7
 2004b34:	20049bc0 	call	20049bc <LCD_WriteReg>
		LCD_WriteReg(0x0D, 0x0006); // Set amplitude magnification of VLCD63
 2004b38:	01000344 	movi	r4,13
 2004b3c:	01400184 	movi	r5,6
 2004b40:	20049bc0 	call	20049bc <LCD_WriteReg>
		LCD_WriteReg(0x0E, 0x3200); // Set alternating amplitude of VCOM
 2004b44:	01000384 	movi	r4,14
 2004b48:	014c8004 	movi	r5,12800
 2004b4c:	20049bc0 	call	20049bc <LCD_WriteReg>
		LCD_WriteReg(0x1E, 0x00BB); // Set VcomH voltage
 2004b50:	01000784 	movi	r4,30
 2004b54:	01402ec4 	movi	r5,187
 2004b58:	20049bc0 	call	20049bc <LCD_WriteReg>
		LCD_WriteReg(0x03, 0x6A64); // Step-up factor/cycle setting
 2004b5c:	010000c4 	movi	r4,3
 2004b60:	015a9904 	movi	r5,27236
 2004b64:	20049bc0 	call	20049bc <LCD_WriteReg>
		//************ RAM position control **********/
		LCD_WriteReg(0x0F, 0x0000); // Gate scan position start at G0.
 2004b68:	010003c4 	movi	r4,15
 2004b6c:	000b883a 	mov	r5,zero
 2004b70:	20049bc0 	call	20049bc <LCD_WriteReg>
		LCD_WriteReg(0x44, 0xEF00); // Horizontal RAM address position
 2004b74:	01001104 	movi	r4,68
 2004b78:	017bc014 	movui	r5,61184
 2004b7c:	20049bc0 	call	20049bc <LCD_WriteReg>
