
djd.elf:     file format elf32-littlenios2
djd.elf
architecture: nios2, flags 0x00000112:
EXEC_P, HAS_SYMS, D_PAGED
start address 0x00004020

Program Header:
    LOAD off    0x00001020 vaddr 0x00004020 paddr 0x00004020 align 2**12
         filesz 0x000027c8 memsz 0x000027d4 flags rwx
    LOAD off    0x00004000 vaddr 0x00009000 paddr 0x00009000 align 2**12
         filesz 0x00000000 memsz 0x00000000 flags r-x

Sections:
Idx Name          Size      VMA       LMA       File off  Algn
  0 .entry        00000000  00009000  00009000  00004000  2**5
                  CONTENTS, ALLOC, LOAD, READONLY, CODE
  1 .text         00002580  00004020  00004020  00001020  2**2
                  CONTENTS, ALLOC, LOAD, READONLY, CODE
  2 .rodata       0000015c  000065a0  000065a0  000035a0  2**2
                  CONTENTS, ALLOC, LOAD, READONLY, DATA
  3 .rwdata       000000ec  000066fc  000066fc  000036fc  2**2
                  CONTENTS, ALLOC, LOAD, DATA, SMALL_DATA
  4 .bss          0000000c  000067e8  000067e8  000037e8  2**2
                  ALLOC, SMALL_DATA
  5 .comment      00000023  00000000  00000000  00004000  2**0
                  CONTENTS, READONLY
  6 .debug_aranges 00000400  00000000  00000000  00004028  2**3
                  CONTENTS, READONLY, DEBUGGING
  7 .debug_pubnames 00000581  00000000  00000000  00004428  2**0
                  CONTENTS, READONLY, DEBUGGING
  8 .debug_info   00005a93  00000000  00000000  000049a9  2**0
                  CONTENTS, READONLY, DEBUGGING
  9 .debug_abbrev 00002621  00000000  00000000  0000a43c  2**0
                  CONTENTS, READONLY, DEBUGGING
 10 .debug_line   00004a5c  00000000  00000000  0000ca5d  2**0
                  CONTENTS, READONLY, DEBUGGING
 11 .debug_frame  00000604  00000000  00000000  000114bc  2**2
                  CONTENTS, READONLY, DEBUGGING
 12 .debug_str    00000eb8  00000000  00000000  00011ac0  2**0
                  CONTENTS, READONLY, DEBUGGING
 13 .debug_loc    00001d60  00000000  00000000  00012978  2**0
                  CONTENTS, READONLY, DEBUGGING
 14 .debug_alt_sim_info 00000040  00000000  00000000  000146d8  2**2
                  CONTENTS, READONLY, DEBUGGING
 15 .debug_ranges 00000428  00000000  00000000  00014718  2**0
                  CONTENTS, READONLY, DEBUGGING
 16 .thread_model 00000003  00000000  00000000  00015d6b  2**0
                  CONTENTS, READONLY
 17 .cpu          00000005  00000000  00000000  00015d6e  2**0
                  CONTENTS, READONLY
 18 .qsys         00000001  00000000  00000000  00015d73  2**0
                  CONTENTS, READONLY
 19 .simulation_enabled 00000001  00000000  00000000  00015d74  2**0
                  CONTENTS, READONLY
 20 .sysid_hash   00000004  00000000  00000000  00015d75  2**0
                  CONTENTS, READONLY
 21 .sysid_base   00000004  00000000  00000000  00015d79  2**0
                  CONTENTS, READONLY
 22 .sysid_time   00000004  00000000  00000000  00015d7d  2**0
                  CONTENTS, READONLY
 23 .stderr_dev   00000004  00000000  00000000  00015d81  2**0
                  CONTENTS, READONLY
 24 .stdin_dev    00000004  00000000  00000000  00015d85  2**0
                  CONTENTS, READONLY
 25 .stdout_dev   00000004  00000000  00000000  00015d89  2**0
                  CONTENTS, READONLY
 26 .sopc_system_name 00000005  00000000  00000000  00015d8d  2**0
                  CONTENTS, READONLY
 27 .quartus_project_dir 00000013  00000000  00000000  00015d92  2**0
                  CONTENTS, READONLY
 28 .sopcinfo     0003999e  00000000  00000000  00015da5  2**0
                  CONTENTS, READONLY
SYMBOL TABLE:
00009000 l    d  .entry	00000000 .entry
00004020 l    d  .text	00000000 .text
000065a0 l    d  .rodata	00000000 .rodata
000066fc l    d  .rwdata	00000000 .rwdata
000067e8 l    d  .bss	00000000 .bss
00000000 l    d  .comment	00000000 .comment
00000000 l    d  .debug_aranges	00000000 .debug_aranges
00000000 l    d  .debug_pubnames	00000000 .debug_pubnames
00000000 l    d  .debug_info	00000000 .debug_info
00000000 l    d  .debug_abbrev	00000000 .debug_abbrev
00000000 l    d  .debug_line	00000000 .debug_line
00000000 l    d  .debug_frame	00000000 .debug_frame
00000000 l    d  .debug_str	00000000 .debug_str
00000000 l    d  .debug_loc	00000000 .debug_loc
00000000 l    d  .debug_alt_sim_info	00000000 .debug_alt_sim_info
00000000 l    d  .debug_ranges	00000000 .debug_ranges
00004054 l       .text	00000000 alt_after_alt_main
00000000 l    df *ABS*	00000000 djd.c
00000000 l    df *ABS*	00000000 lcd12864.c
00000000 l    df *ABS*	00000000 main.c
00000000 l    df *ABS*	00000000 fp-bit.c
00000000 l    df *ABS*	00000000 fp-bit.c
00000000 l    df *ABS*	00000000 fp-bit.c
00000000 l    df *ABS*	00000000 fp-bit.c
00000000 l    df *ABS*	00000000 fp-bit.c
00000000 l    df *ABS*	00000000 dp-bit.c
00000000 l    df *ABS*	00000000 dp-bit.c
00000000 l    df *ABS*	00000000 dp-bit.c
00000000 l    df *ABS*	00000000 dp-bit.c
00000000 l    df *ABS*	00000000 dp-bit.c
00000000 l    df *ABS*	00000000 dp-bit.c
00000000 l    df *ABS*	00000000 libgcc2.c
00000000 l    df *ABS*	00000000 libgcc2.c
00000000 l    df *ABS*	00000000 fp-bit.c
00000000 l    df *ABS*	00000000 fp-bit.c
00000000 l    df *ABS*	00000000 dp-bit.c
00000000 l    df *ABS*	00000000 dp-bit.c
00000000 l    df *ABS*	00000000 dp-bit.c
00000000 l    df *ABS*	00000000 lib2-mul.c
00000000 l    df *ABS*	00000000 libgcc2.c
00000000 l    df *ABS*	00000000 sprintf.c
00000000 l    df *ABS*	00000000 vfprintf.c
00005af4 l     F .text	00000080 print_repeat
00000000 l    df *ABS*	00000000 fvwrite_small_str.c
00000000 l    df *ABS*	00000000 impure.c
000066fc l     O .rwdata	000000e0 impure_data
00000000 l    df *ABS*	00000000 memmove.c
00000000 l    df *ABS*	00000000 strlen.c
00000000 l    df *ABS*	00000000 lib2-divmod.c
0000636c l     F .text	0000007c udivmodsi4
00000000 l    df *ABS*	00000000 alt_main.c
00000000 l    df *ABS*	00000000 alt_usleep.c
00000000 l    df *ABS*	00000000 alt_sys_init.c
00000000 l    df *ABS*	00000000 alt_busy_sleep.c
00000000 l    df *ABS*	00000000 altera_nios2_qsys_irq.c
000064b8 g     F .text	0000002c alt_main
000046fc g     F .text	00000174 __divsf3
000062ec g     F .text	00000060 memmove
00006234 g     F .text	000000b8 __sfvwrite_small_str
00009000 g     F .entry	00000000 __reset
000050b0 g     F .text	00000038 __make_dp
000067ec g     O .bss	00000004 alt_argv
0000e7dc g       *ABS*	00000000 _gp
000064e4 g     F .text	00000004 usleep
000067e4 g     O .rwdata	00000004 jtag
00005028 g     F .text	00000088 __ltdf2
000064a8 g     F .text	00000008 __udivsi3
000057c8 g     F .text	00000138 __unpack_d
00004870 g     F .text	00000054 __extendsfdf2
000067e0 g     O .rwdata	00000004 _global_impure_ptr
000067f4 g       *ABS*	00000000 __bss_end
00004324 g     F .text	0000003c LCD_CheckBusy
000053ec g     F .text	000000c8 __unpack_f
000064b0 g     F .text	00000008 __umodsi3
000067f4 g       *ABS*	00000000 end
0000528c g     F .text	00000160 __pack_f
00007000 g       *ABS*	00000000 __alt_stack_pointer
0000520c g     F .text	00000080 __clzsi2
00005b74 g     F .text	0000069c ___vfprintf_internal_r
00005a84 g     F .text	00000070 _sprintf_r
00004020 g     F .text	00000038 _start
000064e8 g     F .text	00000004 alt_sys_init
000059c8 g     F .text	00000038 __mulsi3
0000650c g     F .text	0000008c alt_busy_sleep
00005900 g     F .text	000000c8 __fpcmp_parts_d
000067f4 g       *ABS*	00000000 __alt_stack_base
00004d48 g     F .text	00000258 __divdf3
00004984 g     F .text	000003c4 __muldf3
000065d8 g     O .rodata	00000010 __thenan_sf
000067e8 g       *ABS*	00000000 __bss_start
00004470 g     F .text	00000078 LCD_Init
000044e8 g     F .text	00000034 main
00004000 g       *ABS*	00000000 __alt_mem_RAM
000067f0 g     O .bss	00000004 alt_envp
000063e8 g     F .text	00000060 __divsi3
000065e8 g     O .rodata	00000014 __thenan_df
0000451c g     F .text	000001e0 __mulsf3
00004058 g     F .text	00000068 ReadDJD
000064ec g     F .text	00000020 alt_irq_init
00005a00 g     F .text	00000084 sprintf
000065fc g     O .rodata	00000100 __clz_tab
000067dc g     O .rwdata	00000004 _impure_ptr
000067e8 g     O .bss	00000004 alt_argc
00004360 g     F .text	00000054 LCD_WriteData
000067e8 g       *ABS*	00000000 _edata
000067f4 g       *ABS*	00000000 _end
00006598 g     F .text	00000008 altera_nios2_qsys_irq_init
00009000 g       .entry	00000000 exit
000043b4 g     F .text	00000054 LCD_WriteCom
000048c4 g     F .text	000000c0 __floatunsisf
00006448 g     F .text	00000060 __modsi3
00007000 g       *ABS*	00000000 __alt_data_end
000040c0 g     F .text	00000264 DJDaut
00004408 g     F .text	00000068 LCD_ShowString
00009000 g       .entry	00000000 _exit
000050e8 g     F .text	00000124 __muldi3
0000634c g     F .text	00000020 strlen
00004fa0 g     F .text	00000088 __gedf2
00006210 g     F .text	00000024 __vfprintf_internal
00009000 g       *ABS*	00000000 __alt_mem_epcs
000054b4 g     F .text	00000314 __pack_d



Disassembly of section .text:

00004020 <_start>:
#if (NIOS2_NUM_OF_SHADOW_REG_SETS == 0)    
    /*
     * Now that the caches are initialized, set up the stack pointer.
     * The value provided by the linker is assumed to be correctly aligned.
     */
    movhi sp, %hi(__alt_stack_pointer)
    4020:	06c00034 	movhi	sp,0
    ori sp, sp, %lo(__alt_stack_pointer)
    4024:	dedc0014 	ori	sp,sp,28672

    /* Set up the global pointer. */
    movhi gp, %hi(_gp)
    4028:	06800034 	movhi	gp,0
    ori gp, gp, %lo(_gp)
    402c:	d6b9f714 	ori	gp,gp,59356
 */
#ifndef ALT_SIM_OPTIMIZE
    /* Log that the BSS is about to be cleared. */
    ALT_LOG_PUTS(alt_log_msg_bss)

    movhi r2, %hi(__bss_start)
    4030:	00800034 	movhi	r2,0
    ori r2, r2, %lo(__bss_start)
    4034:	1099fa14 	ori	r2,r2,26600

    movhi r3, %hi(__bss_end)
    4038:	00c00034 	movhi	r3,0
    ori r3, r3, %lo(__bss_end)
    403c:	18d9fd14 	ori	r3,r3,26612

    beq r2, r3, 1f
    4040:	10c00326 	beq	r2,r3,4050 <_start+0x30>

0:
    stw zero, (r2)
    4044:	10000015 	stw	zero,0(r2)
    addi r2, r2, 4
    4048:	10800104 	addi	r2,r2,4
    bltu r2, r3, 0b
    404c:	10fffd36 	bltu	r2,r3,4044 <_start+0x24>

    /* Log that alt_main is about to be called. */
    ALT_LOG_PUTS(alt_log_msg_alt_main)

    /* Call the C entry point. It should never return. */
    call alt_main
    4050:	00064b80 	call	64b8 <alt_main>

00004054 <alt_after_alt_main>:

    /* Wait in infinite loop in case alt_main does return. */
alt_after_alt_main:
    br alt_after_alt_main
    4054:	003fff06 	br	4054 <alt_after_alt_main>

00004058 <ReadDJD>:
	d[13]='\0';
	LCD_ShowString(3,2,d);
}

double ReadDJD(void)//返回频率值
{
    4058:	defffd04 	addi	sp,sp,-12
    405c:	dfc00215 	stw	ra,8(sp)
    4060:	dc400115 	stw	r17,4(sp)
    4064:	dc000015 	stw	r16,0(sp)
	double temp;
	alt_u32 d1,d2;
	d1=ReadTest;
    4068:	00a80914 	movui	r2,40996
    406c:	11000037 	ldwio	r4,0(r2)
	d2=ReadRef;
    4070:	00a80814 	movui	r2,40992
    4074:	14400037 	ldwio	r17,0(r2)
    4078:	00048c40 	call	48c4 <__floatunsisf>
    407c:	01534ff4 	movhi	r5,19775
    4080:	296f0804 	addi	r5,r5,-17376
    4084:	1009883a 	mov	r4,r2
    4088:	000451c0 	call	451c <__mulsf3>
    408c:	8809883a 	mov	r4,r17
    4090:	1021883a 	mov	r16,r2
    4094:	00048c40 	call	48c4 <__floatunsisf>
    4098:	100b883a 	mov	r5,r2
    409c:	8009883a 	mov	r4,r16
    40a0:	00046fc0 	call	46fc <__divsf3>
    40a4:	1009883a 	mov	r4,r2
    40a8:	00048700 	call	4870 <__extendsfdf2>
	temp=(d1*200000000.0f)/d2;
	return(temp);
}
    40ac:	dfc00217 	ldw	ra,8(sp)
    40b0:	dc400117 	ldw	r17,4(sp)
    40b4:	dc000017 	ldw	r16,0(sp)
    40b8:	dec00304 	addi	sp,sp,12
    40bc:	f800283a 	ret

000040c0 <DJDaut>:
* 功 能：自动切换显示单位
* 入口参数：n
* 出口参数：无
********************************************************************/
void DJDaut(double n)
{
    40c0:	defff704 	addi	sp,sp,-36
	char d[14];

	if(n>=0.000 && n<0.001)
    40c4:	000d883a 	mov	r6,zero
    40c8:	000f883a 	mov	r7,zero
* 功 能：自动切换显示单位
* 入口参数：n
* 出口参数：无
********************************************************************/
void DJDaut(double n)
{
    40cc:	dcc00715 	stw	r19,28(sp)
    40d0:	dc800615 	stw	r18,24(sp)
    40d4:	dfc00815 	stw	ra,32(sp)
    40d8:	dc400515 	stw	r17,20(sp)
    40dc:	dc000415 	stw	r16,16(sp)
    40e0:	2025883a 	mov	r18,r4
    40e4:	2827883a 	mov	r19,r5
	char d[14];

	if(n>=0.000 && n<0.001)
    40e8:	0004fa00 	call	4fa0 <__gedf2>
    40ec:	10001816 	blt	r2,zero,4150 <DJDaut+0x90>
    40f0:	00b4bcb4 	movhi	r2,54002
    40f4:	10aa7f04 	addi	r2,r2,-22020
    40f8:	00cfd434 	movhi	r3,16208
    40fc:	18d89344 	addi	r3,r3,25165
    4100:	180f883a 	mov	r7,r3
    4104:	9009883a 	mov	r4,r18
    4108:	980b883a 	mov	r5,r19
    410c:	100d883a 	mov	r6,r2
    4110:	00050280 	call	5028 <__ltdf2>
    4114:	10000e0e 	bge	r2,zero,4150 <DJDaut+0x90>
	{
		n=n*1000000;
		sprintf(d,"%10.6fuHz",(double)n);
    4118:	0005883a 	mov	r2,zero
    411c:	00d04bf4 	movhi	r3,16687
    4120:	18e12004 	addi	r3,r3,-31616
    4124:	980b883a 	mov	r5,r19
    4128:	180f883a 	mov	r7,r3
    412c:	9009883a 	mov	r4,r18
    4130:	100d883a 	mov	r6,r2
    4134:	00049840 	call	4984 <__muldf3>
    4138:	1011883a 	mov	r8,r2
    413c:	180f883a 	mov	r7,r3
    4140:	d809883a 	mov	r4,sp
    4144:	01400034 	movhi	r5,0
    4148:	29596804 	addi	r5,r5,26016
    414c:	00006706 	br	42ec <DJDaut+0x22c>
	}
	else if(n>=0.001 && n<1)
    4150:	00b4bcb4 	movhi	r2,54002
    4154:	10aa7f04 	addi	r2,r2,-22020
    4158:	00cfd434 	movhi	r3,16208
    415c:	18d89344 	addi	r3,r3,25165
    4160:	180f883a 	mov	r7,r3
    4164:	9009883a 	mov	r4,r18
    4168:	980b883a 	mov	r5,r19
    416c:	100d883a 	mov	r6,r2
    4170:	0004fa00 	call	4fa0 <__gedf2>
    4174:	10001616 	blt	r2,zero,41d0 <DJDaut+0x110>
    4178:	0005883a 	mov	r2,zero
    417c:	00cffc34 	movhi	r3,16368
    4180:	180f883a 	mov	r7,r3
    4184:	9009883a 	mov	r4,r18
    4188:	980b883a 	mov	r5,r19
    418c:	100d883a 	mov	r6,r2
    4190:	00050280 	call	5028 <__ltdf2>
    4194:	10000e0e 	bge	r2,zero,41d0 <DJDaut+0x110>
	{
		n=n*1000;
		sprintf(d,"%10.6fmHz",(double)n);
    4198:	0005883a 	mov	r2,zero
    419c:	00d023f4 	movhi	r3,16527
    41a0:	18d00004 	addi	r3,r3,16384
    41a4:	980b883a 	mov	r5,r19
    41a8:	180f883a 	mov	r7,r3
    41ac:	9009883a 	mov	r4,r18
    41b0:	100d883a 	mov	r6,r2
    41b4:	00049840 	call	4984 <__muldf3>
    41b8:	1011883a 	mov	r8,r2
    41bc:	180f883a 	mov	r7,r3
    41c0:	d809883a 	mov	r4,sp
    41c4:	01400034 	movhi	r5,0
    41c8:	29596a84 	addi	r5,r5,26026
    41cc:	00004706 	br	42ec <DJDaut+0x22c>
	}
	else if(n>=1 && n<1000)
    41d0:	0005883a 	mov	r2,zero
    41d4:	00cffc34 	movhi	r3,16368
    41d8:	180f883a 	mov	r7,r3
    41dc:	9009883a 	mov	r4,r18
    41e0:	980b883a 	mov	r5,r19
    41e4:	100d883a 	mov	r6,r2
    41e8:	0004fa00 	call	4fa0 <__gedf2>
    41ec:	10000f16 	blt	r2,zero,422c <DJDaut+0x16c>
    41f0:	0005883a 	mov	r2,zero
    41f4:	00d023f4 	movhi	r3,16527
    41f8:	18d00004 	addi	r3,r3,16384
    41fc:	180f883a 	mov	r7,r3
    4200:	9009883a 	mov	r4,r18
    4204:	980b883a 	mov	r5,r19
    4208:	100d883a 	mov	r6,r2
    420c:	00050280 	call	5028 <__ltdf2>
    4210:	1000060e 	bge	r2,zero,422c <DJDaut+0x16c>
	{
		sprintf(d,"%10.6fHz ",(double)n);
    4214:	980f883a 	mov	r7,r19
    4218:	d809883a 	mov	r4,sp
    421c:	01400034 	movhi	r5,0
    4220:	29596d04 	addi	r5,r5,26036
    4224:	900d883a 	mov	r6,r18
    4228:	00003106 	br	42f0 <DJDaut+0x230>

	}
	else if(n>=1000 && n<1000000)
    422c:	0021883a 	mov	r16,zero
    4230:	045023f4 	movhi	r17,16527
    4234:	8c500004 	addi	r17,r17,16384
    4238:	9009883a 	mov	r4,r18
    423c:	980b883a 	mov	r5,r19
    4240:	800d883a 	mov	r6,r16
    4244:	880f883a 	mov	r7,r17
    4248:	0004fa00 	call	4fa0 <__gedf2>
    424c:	10001416 	blt	r2,zero,42a0 <DJDaut+0x1e0>
    4250:	0005883a 	mov	r2,zero
    4254:	00d04bf4 	movhi	r3,16687
    4258:	18e12004 	addi	r3,r3,-31616
    425c:	180f883a 	mov	r7,r3
    4260:	9009883a 	mov	r4,r18
    4264:	980b883a 	mov	r5,r19
    4268:	100d883a 	mov	r6,r2
    426c:	00050280 	call	5028 <__ltdf2>
    4270:	10000b0e 	bge	r2,zero,42a0 <DJDaut+0x1e0>
	{
		n=n/1000;
		sprintf(d,"%10.6fKHz",(double)n);
    4274:	880f883a 	mov	r7,r17
    4278:	980b883a 	mov	r5,r19
    427c:	9009883a 	mov	r4,r18
    4280:	000d883a 	mov	r6,zero
    4284:	0004d480 	call	4d48 <__divdf3>
    4288:	1011883a 	mov	r8,r2
    428c:	180f883a 	mov	r7,r3
    4290:	d809883a 	mov	r4,sp
    4294:	01400034 	movhi	r5,0
    4298:	29596f84 	addi	r5,r5,26046
    429c:	00001306 	br	42ec <DJDaut+0x22c>
	}
	else if(n>=1000000)
    42a0:	0021883a 	mov	r16,zero
    42a4:	04504bf4 	movhi	r17,16687
    42a8:	8c612004 	addi	r17,r17,-31616
    42ac:	9009883a 	mov	r4,r18
    42b0:	980b883a 	mov	r5,r19
    42b4:	800d883a 	mov	r6,r16
    42b8:	880f883a 	mov	r7,r17
    42bc:	0004fa00 	call	4fa0 <__gedf2>
    42c0:	10000c16 	blt	r2,zero,42f4 <DJDaut+0x234>
	{
		n=n/1000000;
		sprintf(d,"%10.6fMHz",(double)n);
    42c4:	880f883a 	mov	r7,r17
    42c8:	980b883a 	mov	r5,r19
    42cc:	9009883a 	mov	r4,r18
    42d0:	000d883a 	mov	r6,zero
    42d4:	0004d480 	call	4d48 <__divdf3>
    42d8:	1011883a 	mov	r8,r2
    42dc:	180f883a 	mov	r7,r3
    42e0:	d809883a 	mov	r4,sp
    42e4:	01400034 	movhi	r5,0
    42e8:	29597204 	addi	r5,r5,26056
    42ec:	400d883a 	mov	r6,r8
    42f0:	0005a000 	call	5a00 <sprintf>

	}
	d[13]='\0';
	LCD_ShowString(3,2,d);
    42f4:	010000c4 	movi	r4,3
    42f8:	01400084 	movi	r5,2
    42fc:	d80d883a 	mov	r6,sp
	{
		n=n/1000000;
		sprintf(d,"%10.6fMHz",(double)n);

	}
	d[13]='\0';
    4300:	d8000345 	stb	zero,13(sp)
	LCD_ShowString(3,2,d);
    4304:	00044080 	call	4408 <LCD_ShowString>
}
    4308:	dfc00817 	ldw	ra,32(sp)
    430c:	dcc00717 	ldw	r19,28(sp)
    4310:	dc800617 	ldw	r18,24(sp)
    4314:	dc400517 	ldw	r17,20(sp)
    4318:	dc000417 	ldw	r16,16(sp)
    431c:	dec00904 	addi	sp,sp,36
    4320:	f800283a 	ret

00004324 <LCD_CheckBusy>:


//读忙标
void LCD_CheckBusy(void)
{ 
	CLR_RS;
    4324:	00a80214 	movui	r2,40968
    4328:	10000035 	stwio	zero,0(r2)
	SET_RW;
    432c:	00c00044 	movi	r3,1
    4330:	00a80114 	movui	r2,40964
    4334:	10c00035 	stwio	r3,0(r2)
	SET_E;
    4338:	00a80014 	movui	r2,40960
    433c:	10c00035 	stwio	r3,0(r2)
    4340:	00e80314 	movui	r3,40972
	while((RD_REG & 0x80)==0x80);//查busy
    4344:	18800037 	ldwio	r2,0(r3)
    4348:	1080200c 	andi	r2,r2,128
    434c:	103ffd1e 	bne	r2,zero,4344 <LCD_CheckBusy+0x20>
	CLR_E;
    4350:	00a80014 	movui	r2,40960
    4354:	10000035 	stwio	zero,0(r2)
	usleep(100);
    4358:	01001904 	movi	r4,100
    435c:	00064e41 	jmpi	64e4 <usleep>

00004360 <LCD_WriteData>:
	CLR_E;
	usleep(100);
 }
//写数据
void LCD_WriteData(alt_u8 data)
{
    4360:	defffe04 	addi	sp,sp,-8
    4364:	dc000015 	stw	r16,0(sp)
    4368:	dfc00115 	stw	ra,4(sp)
    436c:	2021883a 	mov	r16,r4
	LCD_CheckBusy();
    4370:	00043240 	call	4324 <LCD_CheckBusy>
	SET_RS;
    4374:	01000044 	movi	r4,1
    4378:	00a80214 	movui	r2,40968
    437c:	11000035 	stwio	r4,0(r2)
	CLR_RW;
    4380:	00a80114 	movui	r2,40964
    4384:	10000035 	stwio	zero,0(r2)
	SET_E;
    4388:	00e80014 	movui	r3,40960
    438c:	19000035 	stwio	r4,0(r3)
	WR_DATA(data);
    4390:	84003fcc 	andi	r16,r16,255
    4394:	00a80314 	movui	r2,40972
    4398:	14000035 	stwio	r16,0(r2)
	CLR_E;
    439c:	18000035 	stwio	zero,0(r3)
	usleep(100);
    43a0:	01001904 	movi	r4,100
}
    43a4:	dfc00117 	ldw	ra,4(sp)
    43a8:	dc000017 	ldw	r16,0(sp)
    43ac:	dec00204 	addi	sp,sp,8
	SET_RS;
	CLR_RW;
	SET_E;
	WR_DATA(data);
	CLR_E;
	usleep(100);
    43b0:	00064e41 	jmpi	64e4 <usleep>

000043b4 <LCD_WriteCom>:
	usleep(100);
   
}
//写指令
void LCD_WriteCom(alt_u8 com)
{
    43b4:	defffe04 	addi	sp,sp,-8
    43b8:	dc000015 	stw	r16,0(sp)
    43bc:	dfc00115 	stw	ra,4(sp)
    43c0:	2021883a 	mov	r16,r4
    
	LCD_CheckBusy();
    43c4:	00043240 	call	4324 <LCD_CheckBusy>
	CLR_RS;
    43c8:	00a80214 	movui	r2,40968
    43cc:	10000035 	stwio	zero,0(r2)
	CLR_RW;
    43d0:	00a80114 	movui	r2,40964
    43d4:	10000035 	stwio	zero,0(r2)
	SET_E;
    43d8:	00e80014 	movui	r3,40960
    43dc:	00800044 	movi	r2,1
    43e0:	18800035 	stwio	r2,0(r3)
	WR_DATA(com);
    43e4:	84003fcc 	andi	r16,r16,255
    43e8:	00a80314 	movui	r2,40972
    43ec:	14000035 	stwio	r16,0(r2)
	CLR_E;
    43f0:	18000035 	stwio	zero,0(r3)
	usleep(100);
    43f4:	01001904 	movi	r4,100
 }
    43f8:	dfc00117 	ldw	ra,4(sp)
    43fc:	dc000017 	ldw	r16,0(sp)
    4400:	dec00204 	addi	sp,sp,8
	CLR_RS;
	CLR_RW;
	SET_E;
	WR_DATA(com);
	CLR_E;
	usleep(100);
    4404:	00064e41 	jmpi	64e4 <usleep>

00004408 <LCD_ShowString>:
	LCD_WriteCom(0x01);
	usleep(1000);
}
//显示字符串
void LCD_ShowString(alt_u8 x,alt_u8 y,char *str)
{
    4408:	defffe04 	addi	sp,sp,-8
	alt_u8 addr;
	if(y==1)
    440c:	29403fcc 	andi	r5,r5,255
    4410:	00800044 	movi	r2,1
	LCD_WriteCom(0x01);
	usleep(1000);
}
//显示字符串
void LCD_ShowString(alt_u8 x,alt_u8 y,char *str)
{
    4414:	dc000015 	stw	r16,0(sp)
    4418:	dfc00115 	stw	ra,4(sp)
    441c:	3021883a 	mov	r16,r6
    4420:	2007883a 	mov	r3,r4
	alt_u8 addr;
	if(y==1)
    4424:	2880021e 	bne	r5,r2,4430 <LCD_ShowString+0x28>
	addr = 0x80 | x;
    4428:	00bfe004 	movi	r2,-128
    442c:	00000106 	br	4434 <LCD_ShowString+0x2c>
	else
	addr = 0xc0 | x;
    4430:	00bff004 	movi	r2,-64
    4434:	2084b03a 	or	r2,r4,r2

    addr |= (x - 0x01);
    LCD_WriteCom(addr);
    4438:	193fffc4 	addi	r4,r3,-1
    443c:	2088b03a 	or	r4,r4,r2
    4440:	21003fcc 	andi	r4,r4,255
    4444:	00043b40 	call	43b4 <LCD_WriteCom>
    4448:	00000106 	br	4450 <LCD_ShowString+0x48>
    while(*str!='\0')
    {
        LCD_WriteData(*str);
    444c:	00043600 	call	4360 <LCD_WriteData>
	else
	addr = 0xc0 | x;

    addr |= (x - 0x01);
    LCD_WriteCom(addr);
    while(*str!='\0')
    4450:	80800003 	ldbu	r2,0(r16)
    {
        LCD_WriteData(*str);
        str++;
    4454:	84000044 	addi	r16,r16,1

    addr |= (x - 0x01);
    LCD_WriteCom(addr);
    while(*str!='\0')
    {
        LCD_WriteData(*str);
    4458:	11003fcc 	andi	r4,r2,255
	else
	addr = 0xc0 | x;

    addr |= (x - 0x01);
    LCD_WriteCom(addr);
    while(*str!='\0')
    445c:	103ffb1e 	bne	r2,zero,444c <LCD_ShowString+0x44>
    {
        LCD_WriteData(*str);
        str++;
    }
}
    4460:	dfc00117 	ldw	ra,4(sp)
    4464:	dc000017 	ldw	r16,0(sp)
    4468:	dec00204 	addi	sp,sp,8
    446c:	f800283a 	ret

00004470 <LCD_Init>:
	CLR_E;
	usleep(100);
}
//初始化
void LCD_Init(void)
{
    4470:	defffd04 	addi	sp,sp,-12
    4474:	dc400115 	stw	r17,4(sp)
	LCD_WriteCom(0x38);
    4478:	04400e04 	movi	r17,56
	CLR_E;
	usleep(100);
}
//初始化
void LCD_Init(void)
{
    447c:	dc000015 	stw	r16,0(sp)
	LCD_WriteCom(0x38);
    4480:	8809883a 	mov	r4,r17
	usleep(100);
    4484:	04001904 	movi	r16,100
	CLR_E;
	usleep(100);
}
//初始化
void LCD_Init(void)
{
    4488:	dfc00215 	stw	ra,8(sp)
	LCD_WriteCom(0x38);
    448c:	00043b40 	call	43b4 <LCD_WriteCom>
	usleep(100);
    4490:	8009883a 	mov	r4,r16
    4494:	00064e40 	call	64e4 <usleep>
	LCD_WriteCom(0x38);
    4498:	8809883a 	mov	r4,r17
    449c:	00043b40 	call	43b4 <LCD_WriteCom>
	usleep(100);
    44a0:	8009883a 	mov	r4,r16
    44a4:	00064e40 	call	64e4 <usleep>
	LCD_WriteCom(0x0c);
    44a8:	01000304 	movi	r4,12
    44ac:	00043b40 	call	43b4 <LCD_WriteCom>
	usleep(100);
    44b0:	8009883a 	mov	r4,r16
    44b4:	00064e40 	call	64e4 <usleep>
	LCD_WriteCom(0x06);
    44b8:	01000184 	movi	r4,6
    44bc:	00043b40 	call	43b4 <LCD_WriteCom>
	usleep(100);
    44c0:	8009883a 	mov	r4,r16
    44c4:	00064e40 	call	64e4 <usleep>
	LCD_WriteCom(0x01);
    44c8:	01000044 	movi	r4,1
    44cc:	00043b40 	call	43b4 <LCD_WriteCom>
	usleep(1000);
    44d0:	0100fa04 	movi	r4,1000
}
    44d4:	dfc00217 	ldw	ra,8(sp)
    44d8:	dc400117 	ldw	r17,4(sp)
    44dc:	dc000017 	ldw	r16,0(sp)
    44e0:	dec00304 	addi	sp,sp,12
	LCD_WriteCom(0x0c);
	usleep(100);
	LCD_WriteCom(0x06);
	usleep(100);
	LCD_WriteCom(0x01);
	usleep(1000);
    44e4:	00064e41 	jmpi	64e4 <usleep>

000044e8 <main>:
#include "lcd12864.h"
#include "sys/alt_stdio.h"


int main()
{
    44e8:	deffff04 	addi	sp,sp,-4
    44ec:	dfc00015 	stw	ra,0(sp)
	LCD_Init();//lcd12864初始化
    44f0:	00044700 	call	4470 <LCD_Init>
	LCD_ShowString(1,1,"OK");
    44f4:	01000044 	movi	r4,1
    44f8:	200b883a 	mov	r5,r4
    44fc:	01800034 	movhi	r6,0
    4500:	31997484 	addi	r6,r6,26066
    4504:	00044080 	call	4408 <LCD_ShowString>
	while(1)
	{
		DJDaut(ReadDJD());
    4508:	00040580 	call	4058 <ReadDJD>
    450c:	180b883a 	mov	r5,r3
    4510:	1009883a 	mov	r4,r2
    4514:	00040c00 	call	40c0 <DJDaut>
    4518:	003ffb06 	br	4508 <main+0x20>

0000451c <__mulsf3>:
    451c:	deffef04 	addi	sp,sp,-68
    4520:	dc400f15 	stw	r17,60(sp)
    4524:	dc400204 	addi	r17,sp,8
    4528:	dc000e15 	stw	r16,56(sp)
    452c:	d9000015 	stw	r4,0(sp)
    4530:	d9400115 	stw	r5,4(sp)
    4534:	d809883a 	mov	r4,sp
    4538:	880b883a 	mov	r5,r17
    453c:	dc000604 	addi	r16,sp,24
    4540:	dfc01015 	stw	ra,64(sp)
    4544:	00053ec0 	call	53ec <__unpack_f>
    4548:	d9000104 	addi	r4,sp,4
    454c:	800b883a 	mov	r5,r16
    4550:	00053ec0 	call	53ec <__unpack_f>
    4554:	d9000217 	ldw	r4,8(sp)
    4558:	00800044 	movi	r2,1
    455c:	01400104 	movi	r5,4
    4560:	1100142e 	bgeu	r2,r4,45b4 <__mulsf3+0x98>
    4564:	d8c00617 	ldw	r3,24(sp)
    4568:	10c0052e 	bgeu	r2,r3,4580 <__mulsf3+0x64>
    456c:	21400f26 	beq	r4,r5,45ac <__mulsf3+0x90>
    4570:	19405d26 	beq	r3,r5,46e8 <__mulsf3+0x1cc>
    4574:	00800084 	movi	r2,2
    4578:	20800e26 	beq	r4,r2,45b4 <__mulsf3+0x98>
    457c:	1880181e 	bne	r3,r2,45e0 <__mulsf3+0xc4>
    4580:	d8c00717 	ldw	r3,28(sp)
    4584:	d8800317 	ldw	r2,12(sp)
    4588:	8009883a 	mov	r4,r16
    458c:	10c4c03a 	cmpne	r2,r2,r3
    4590:	d8800715 	stw	r2,28(sp)
    4594:	000528c0 	call	528c <__pack_f>
    4598:	dfc01017 	ldw	ra,64(sp)
    459c:	dc400f17 	ldw	r17,60(sp)
    45a0:	dc000e17 	ldw	r16,56(sp)
    45a4:	dec01104 	addi	sp,sp,68
    45a8:	f800283a 	ret
    45ac:	00800084 	movi	r2,2
    45b0:	18804f26 	beq	r3,r2,46f0 <__mulsf3+0x1d4>
    45b4:	d8800317 	ldw	r2,12(sp)
    45b8:	d8c00717 	ldw	r3,28(sp)
    45bc:	8809883a 	mov	r4,r17
    45c0:	10c4c03a 	cmpne	r2,r2,r3
    45c4:	d8800315 	stw	r2,12(sp)
    45c8:	000528c0 	call	528c <__pack_f>
    45cc:	dfc01017 	ldw	ra,64(sp)
    45d0:	dc400f17 	ldw	r17,60(sp)
    45d4:	dc000e17 	ldw	r16,56(sp)
    45d8:	dec01104 	addi	sp,sp,68
    45dc:	f800283a 	ret
    45e0:	d8800517 	ldw	r2,20(sp)
    45e4:	da000917 	ldw	r8,36(sp)
    45e8:	0013883a 	mov	r9,zero
    45ec:	0007883a 	mov	r3,zero
    45f0:	480f883a 	mov	r7,r9
    45f4:	180b883a 	mov	r5,r3
    45f8:	400d883a 	mov	r6,r8
    45fc:	1009883a 	mov	r4,r2
    4600:	00050e80 	call	50e8 <__muldi3>
    4604:	da800417 	ldw	r10,16(sp)
    4608:	d9800817 	ldw	r6,32(sp)
    460c:	da400317 	ldw	r9,12(sp)
    4610:	52800084 	addi	r10,r10,2
    4614:	3295883a 	add	r10,r6,r10
    4618:	d9800717 	ldw	r6,28(sp)
    461c:	180b883a 	mov	r5,r3
    4620:	180f883a 	mov	r7,r3
    4624:	4992c03a 	cmpne	r9,r9,r6
    4628:	da400b15 	stw	r9,44(sp)
    462c:	1007883a 	mov	r3,r2
    4630:	da800c15 	stw	r10,48(sp)
    4634:	2800070e 	bge	r5,zero,4654 <__mulsf3+0x138>
    4638:	2880004c 	andi	r2,r5,1
    463c:	1005003a 	cmpeq	r2,r2,zero
    4640:	500d883a 	mov	r6,r10
    4644:	10001e26 	beq	r2,zero,46c0 <__mulsf3+0x1a4>
    4648:	380ed07a 	srli	r7,r7,1
    464c:	31800044 	addi	r6,r6,1
    4650:	d9800c15 	stw	r6,48(sp)
    4654:	01100034 	movhi	r4,16384
    4658:	213fffc4 	addi	r4,r4,-1
    465c:	21c00b36 	bltu	r4,r7,468c <__mulsf3+0x170>
    4660:	d8800c17 	ldw	r2,48(sp)
    4664:	00000206 	br	4670 <__mulsf3+0x154>
    4668:	18c7883a 	add	r3,r3,r3
    466c:	21c00636 	bltu	r4,r7,4688 <__mulsf3+0x16c>
    4670:	10bfffc4 	addi	r2,r2,-1
    4674:	39cf883a 	add	r7,r7,r7
    4678:	183ffb0e 	bge	r3,zero,4668 <__mulsf3+0x14c>
    467c:	39c00054 	ori	r7,r7,1
    4680:	18c7883a 	add	r3,r3,r3
    4684:	21fffa2e 	bgeu	r4,r7,4670 <__mulsf3+0x154>
    4688:	d8800c15 	stw	r2,48(sp)
    468c:	39001fcc 	andi	r4,r7,127
    4690:	00801004 	movi	r2,64
    4694:	20800d26 	beq	r4,r2,46cc <__mulsf3+0x1b0>
    4698:	008000c4 	movi	r2,3
    469c:	d9000a04 	addi	r4,sp,40
    46a0:	d9c00d15 	stw	r7,52(sp)
    46a4:	d8800a15 	stw	r2,40(sp)
    46a8:	000528c0 	call	528c <__pack_f>
    46ac:	dfc01017 	ldw	ra,64(sp)
    46b0:	dc400f17 	ldw	r17,60(sp)
    46b4:	dc000e17 	ldw	r16,56(sp)
    46b8:	dec01104 	addi	sp,sp,68
    46bc:	f800283a 	ret
    46c0:	1804d07a 	srli	r2,r3,1
    46c4:	10e00034 	orhi	r3,r2,32768
    46c8:	003fdf06 	br	4648 <__mulsf3+0x12c>
    46cc:	3880200c 	andi	r2,r7,128
    46d0:	103ff11e 	bne	r2,zero,4698 <__mulsf3+0x17c>
    46d4:	183ff026 	beq	r3,zero,4698 <__mulsf3+0x17c>
    46d8:	3907883a 	add	r3,r7,r4
    46dc:	00bfe004 	movi	r2,-128
    46e0:	188e703a 	and	r7,r3,r2
    46e4:	003fec06 	br	4698 <__mulsf3+0x17c>
    46e8:	00800084 	movi	r2,2
    46ec:	20bfa41e 	bne	r4,r2,4580 <__mulsf3+0x64>
    46f0:	01000034 	movhi	r4,0
    46f4:	21197604 	addi	r4,r4,26072
    46f8:	003fb306 	br	45c8 <__mulsf3+0xac>

000046fc <__divsf3>:
    46fc:	defff304 	addi	sp,sp,-52
    4700:	dc400b15 	stw	r17,44(sp)
    4704:	dc400204 	addi	r17,sp,8
    4708:	dc000a15 	stw	r16,40(sp)
    470c:	d9000015 	stw	r4,0(sp)
    4710:	d9400115 	stw	r5,4(sp)
    4714:	d809883a 	mov	r4,sp
    4718:	880b883a 	mov	r5,r17
    471c:	dc000604 	addi	r16,sp,24
    4720:	dfc00c15 	stw	ra,48(sp)
    4724:	00053ec0 	call	53ec <__unpack_f>
    4728:	d9000104 	addi	r4,sp,4
    472c:	800b883a 	mov	r5,r16
    4730:	00053ec0 	call	53ec <__unpack_f>
    4734:	d9000217 	ldw	r4,8(sp)
    4738:	00800044 	movi	r2,1
    473c:	01800104 	movi	r6,4
    4740:	11000a2e 	bgeu	r2,r4,476c <__divsf3+0x70>
    4744:	d9400617 	ldw	r5,24(sp)
    4748:	1140432e 	bgeu	r2,r5,4858 <__divsf3+0x15c>
    474c:	d8800317 	ldw	r2,12(sp)
    4750:	d8c00717 	ldw	r3,28(sp)
    4754:	10c4f03a 	xor	r2,r2,r3
    4758:	d8800315 	stw	r2,12(sp)
    475c:	21800226 	beq	r4,r6,4768 <__divsf3+0x6c>
    4760:	00800084 	movi	r2,2
    4764:	2080101e 	bne	r4,r2,47a8 <__divsf3+0xac>
    4768:	29000726 	beq	r5,r4,4788 <__divsf3+0x8c>
    476c:	8809883a 	mov	r4,r17
    4770:	000528c0 	call	528c <__pack_f>
    4774:	dfc00c17 	ldw	ra,48(sp)
    4778:	dc400b17 	ldw	r17,44(sp)
    477c:	dc000a17 	ldw	r16,40(sp)
    4780:	dec00d04 	addi	sp,sp,52
    4784:	f800283a 	ret
    4788:	01000034 	movhi	r4,0
    478c:	21197604 	addi	r4,r4,26072
    4790:	000528c0 	call	528c <__pack_f>
    4794:	dfc00c17 	ldw	ra,48(sp)
    4798:	dc400b17 	ldw	r17,44(sp)
    479c:	dc000a17 	ldw	r16,40(sp)
    47a0:	dec00d04 	addi	sp,sp,52
    47a4:	f800283a 	ret
    47a8:	29802d26 	beq	r5,r6,4860 <__divsf3+0x164>
    47ac:	28801a26 	beq	r5,r2,4818 <__divsf3+0x11c>
    47b0:	d8c00417 	ldw	r3,16(sp)
    47b4:	d8800817 	ldw	r2,32(sp)
    47b8:	d9000517 	ldw	r4,20(sp)
    47bc:	d9800917 	ldw	r6,36(sp)
    47c0:	1885c83a 	sub	r2,r3,r2
    47c4:	d8800415 	stw	r2,16(sp)
    47c8:	2180032e 	bgeu	r4,r6,47d8 <__divsf3+0xdc>
    47cc:	10bfffc4 	addi	r2,r2,-1
    47d0:	d8800415 	stw	r2,16(sp)
    47d4:	2109883a 	add	r4,r4,r4
    47d8:	01500034 	movhi	r5,16384
    47dc:	0007883a 	mov	r3,zero
    47e0:	0005883a 	mov	r2,zero
    47e4:	01c007c4 	movi	r7,31
    47e8:	10800044 	addi	r2,r2,1
    47ec:	21800236 	bltu	r4,r6,47f8 <__divsf3+0xfc>
    47f0:	1946b03a 	or	r3,r3,r5
    47f4:	2189c83a 	sub	r4,r4,r6
    47f8:	280ad07a 	srli	r5,r5,1
    47fc:	2109883a 	add	r4,r4,r4
    4800:	11fff91e 	bne	r2,r7,47e8 <__divsf3+0xec>
    4804:	19401fcc 	andi	r5,r3,127
    4808:	00801004 	movi	r2,64
    480c:	28800a26 	beq	r5,r2,4838 <__divsf3+0x13c>
    4810:	d8c00515 	stw	r3,20(sp)
    4814:	003fd506 	br	476c <__divsf3+0x70>
    4818:	8809883a 	mov	r4,r17
    481c:	d9800215 	stw	r6,8(sp)
    4820:	000528c0 	call	528c <__pack_f>
    4824:	dfc00c17 	ldw	ra,48(sp)
    4828:	dc400b17 	ldw	r17,44(sp)
    482c:	dc000a17 	ldw	r16,40(sp)
    4830:	dec00d04 	addi	sp,sp,52
    4834:	f800283a 	ret
    4838:	1880200c 	andi	r2,r3,128
    483c:	103ff41e 	bne	r2,zero,4810 <__divsf3+0x114>
    4840:	203ff326 	beq	r4,zero,4810 <__divsf3+0x114>
    4844:	1947883a 	add	r3,r3,r5
    4848:	00bfe004 	movi	r2,-128
    484c:	1886703a 	and	r3,r3,r2
    4850:	d8c00515 	stw	r3,20(sp)
    4854:	003fc506 	br	476c <__divsf3+0x70>
    4858:	8009883a 	mov	r4,r16
    485c:	003fc406 	br	4770 <__divsf3+0x74>
    4860:	8809883a 	mov	r4,r17
    4864:	d8000515 	stw	zero,20(sp)
    4868:	d8000415 	stw	zero,16(sp)
    486c:	003fc006 	br	4770 <__divsf3+0x74>

00004870 <__extendsfdf2>:
    4870:	defff904 	addi	sp,sp,-28
    4874:	d9000115 	stw	r4,4(sp)
    4878:	d9400204 	addi	r5,sp,8
    487c:	d9000104 	addi	r4,sp,4
    4880:	dfc00615 	stw	ra,24(sp)
    4884:	00053ec0 	call	53ec <__unpack_f>
    4888:	d9c00517 	ldw	r7,20(sp)
    488c:	0011883a 	mov	r8,zero
    4890:	400697ba 	slli	r3,r8,30
    4894:	3812d0ba 	srli	r9,r7,2
    4898:	380497ba 	slli	r2,r7,30
    489c:	d9000217 	ldw	r4,8(sp)
    48a0:	d9400317 	ldw	r5,12(sp)
    48a4:	d9800417 	ldw	r6,16(sp)
    48a8:	48c6b03a 	or	r3,r9,r3
    48ac:	100f883a 	mov	r7,r2
    48b0:	d8c00015 	stw	r3,0(sp)
    48b4:	00050b00 	call	50b0 <__make_dp>
    48b8:	dfc00617 	ldw	ra,24(sp)
    48bc:	dec00704 	addi	sp,sp,28
    48c0:	f800283a 	ret

000048c4 <__floatunsisf>:
    48c4:	defff904 	addi	sp,sp,-28
    48c8:	dc400515 	stw	r17,20(sp)
    48cc:	dc000415 	stw	r16,16(sp)
    48d0:	dfc00615 	stw	ra,24(sp)
    48d4:	04400784 	movi	r17,30
    48d8:	2021883a 	mov	r16,r4
    48dc:	d8000115 	stw	zero,4(sp)
    48e0:	2000091e 	bne	r4,zero,4908 <__floatunsisf+0x44>
    48e4:	00800084 	movi	r2,2
    48e8:	d8800015 	stw	r2,0(sp)
    48ec:	d809883a 	mov	r4,sp
    48f0:	000528c0 	call	528c <__pack_f>
    48f4:	dfc00617 	ldw	ra,24(sp)
    48f8:	dc400517 	ldw	r17,20(sp)
    48fc:	dc000417 	ldw	r16,16(sp)
    4900:	dec00704 	addi	sp,sp,28
    4904:	f800283a 	ret
    4908:	008000c4 	movi	r2,3
    490c:	d9000315 	stw	r4,12(sp)
    4910:	d8800015 	stw	r2,0(sp)
    4914:	dc400215 	stw	r17,8(sp)
    4918:	000520c0 	call	520c <__clzsi2>
    491c:	117fffc4 	addi	r5,r2,-1
    4920:	0147c83a 	sub	r3,zero,r5
    4924:	00800044 	movi	r2,1
    4928:	10c4983a 	sll	r2,r2,r3
    492c:	80c6d83a 	srl	r3,r16,r3
    4930:	8949c83a 	sub	r4,r17,r5
    4934:	10bfffc4 	addi	r2,r2,-1
    4938:	8084703a 	and	r2,r16,r2
    493c:	1004c03a 	cmpne	r2,r2,zero
    4940:	1886b03a 	or	r3,r3,r2
    4944:	28000c16 	blt	r5,zero,4978 <__floatunsisf+0xb4>
    4948:	8144983a 	sll	r2,r16,r5
    494c:	8947c83a 	sub	r3,r17,r5
    4950:	283fe626 	beq	r5,zero,48ec <__floatunsisf+0x28>
    4954:	d809883a 	mov	r4,sp
    4958:	d8800315 	stw	r2,12(sp)
    495c:	d8c00215 	stw	r3,8(sp)
    4960:	000528c0 	call	528c <__pack_f>
    4964:	dfc00617 	ldw	ra,24(sp)
    4968:	dc400517 	ldw	r17,20(sp)
    496c:	dc000417 	ldw	r16,16(sp)
    4970:	dec00704 	addi	sp,sp,28
    4974:	f800283a 	ret
    4978:	d8c00315 	stw	r3,12(sp)
    497c:	d9000215 	stw	r4,8(sp)
    4980:	003fda06 	br	48ec <__floatunsisf+0x28>

00004984 <__muldf3>:
    4984:	deffe004 	addi	sp,sp,-128
    4988:	dc401815 	stw	r17,96(sp)
    498c:	dc400404 	addi	r17,sp,16
    4990:	2011883a 	mov	r8,r4
    4994:	2813883a 	mov	r9,r5
    4998:	dc001715 	stw	r16,92(sp)
    499c:	d809883a 	mov	r4,sp
    49a0:	880b883a 	mov	r5,r17
    49a4:	dc000904 	addi	r16,sp,36
    49a8:	dfc01f15 	stw	ra,124(sp)
    49ac:	da400115 	stw	r9,4(sp)
    49b0:	d9c00315 	stw	r7,12(sp)
    49b4:	da000015 	stw	r8,0(sp)
    49b8:	d9800215 	stw	r6,8(sp)
    49bc:	ddc01e15 	stw	r23,120(sp)
    49c0:	dd801d15 	stw	r22,116(sp)
    49c4:	dd401c15 	stw	r21,112(sp)
    49c8:	dd001b15 	stw	r20,108(sp)
    49cc:	dcc01a15 	stw	r19,104(sp)
    49d0:	dc801915 	stw	r18,100(sp)
    49d4:	00057c80 	call	57c8 <__unpack_d>
    49d8:	d9000204 	addi	r4,sp,8
    49dc:	800b883a 	mov	r5,r16
    49e0:	00057c80 	call	57c8 <__unpack_d>
    49e4:	d9000417 	ldw	r4,16(sp)
    49e8:	00800044 	movi	r2,1
    49ec:	1100102e 	bgeu	r2,r4,4a30 <__muldf3+0xac>
    49f0:	d8c00917 	ldw	r3,36(sp)
    49f4:	10c0062e 	bgeu	r2,r3,4a10 <__muldf3+0x8c>
    49f8:	00800104 	movi	r2,4
    49fc:	20800a26 	beq	r4,r2,4a28 <__muldf3+0xa4>
    4a00:	1880cc26 	beq	r3,r2,4d34 <__muldf3+0x3b0>
    4a04:	00800084 	movi	r2,2
    4a08:	20800926 	beq	r4,r2,4a30 <__muldf3+0xac>
    4a0c:	1880191e 	bne	r3,r2,4a74 <__muldf3+0xf0>
    4a10:	d8c00a17 	ldw	r3,40(sp)
    4a14:	d8800517 	ldw	r2,20(sp)
    4a18:	8009883a 	mov	r4,r16
    4a1c:	10c4c03a 	cmpne	r2,r2,r3
    4a20:	d8800a15 	stw	r2,40(sp)
    4a24:	00000706 	br	4a44 <__muldf3+0xc0>
    4a28:	00800084 	movi	r2,2
    4a2c:	1880c326 	beq	r3,r2,4d3c <__muldf3+0x3b8>
    4a30:	d8800517 	ldw	r2,20(sp)
    4a34:	d8c00a17 	ldw	r3,40(sp)
    4a38:	8809883a 	mov	r4,r17
    4a3c:	10c4c03a 	cmpne	r2,r2,r3
    4a40:	d8800515 	stw	r2,20(sp)
    4a44:	00054b40 	call	54b4 <__pack_d>
    4a48:	dfc01f17 	ldw	ra,124(sp)
    4a4c:	ddc01e17 	ldw	r23,120(sp)
    4a50:	dd801d17 	ldw	r22,116(sp)
    4a54:	dd401c17 	ldw	r21,112(sp)
    4a58:	dd001b17 	ldw	r20,108(sp)
    4a5c:	dcc01a17 	ldw	r19,104(sp)
    4a60:	dc801917 	ldw	r18,100(sp)
    4a64:	dc401817 	ldw	r17,96(sp)
    4a68:	dc001717 	ldw	r16,92(sp)
    4a6c:	dec02004 	addi	sp,sp,128
    4a70:	f800283a 	ret
    4a74:	dd800717 	ldw	r22,28(sp)
    4a78:	dc800c17 	ldw	r18,48(sp)
    4a7c:	002b883a 	mov	r21,zero
    4a80:	0023883a 	mov	r17,zero
    4a84:	a80b883a 	mov	r5,r21
    4a88:	b00d883a 	mov	r6,r22
    4a8c:	880f883a 	mov	r7,r17
    4a90:	ddc00817 	ldw	r23,32(sp)
    4a94:	dcc00d17 	ldw	r19,52(sp)
    4a98:	9009883a 	mov	r4,r18
    4a9c:	00050e80 	call	50e8 <__muldi3>
    4aa0:	001b883a 	mov	r13,zero
    4aa4:	680f883a 	mov	r7,r13
    4aa8:	b009883a 	mov	r4,r22
    4aac:	000b883a 	mov	r5,zero
    4ab0:	980d883a 	mov	r6,r19
    4ab4:	b82d883a 	mov	r22,r23
    4ab8:	002f883a 	mov	r23,zero
    4abc:	db401615 	stw	r13,88(sp)
    4ac0:	d8801315 	stw	r2,76(sp)
    4ac4:	d8c01415 	stw	r3,80(sp)
    4ac8:	dcc01515 	stw	r19,84(sp)
    4acc:	00050e80 	call	50e8 <__muldi3>
    4ad0:	b00d883a 	mov	r6,r22
    4ad4:	000b883a 	mov	r5,zero
    4ad8:	9009883a 	mov	r4,r18
    4adc:	b80f883a 	mov	r7,r23
    4ae0:	1021883a 	mov	r16,r2
    4ae4:	1823883a 	mov	r17,r3
    4ae8:	00050e80 	call	50e8 <__muldi3>
    4aec:	8085883a 	add	r2,r16,r2
    4af0:	140d803a 	cmpltu	r6,r2,r16
    4af4:	88c7883a 	add	r3,r17,r3
    4af8:	30cd883a 	add	r6,r6,r3
    4afc:	1029883a 	mov	r20,r2
    4b00:	302b883a 	mov	r21,r6
    4b04:	da801317 	ldw	r10,76(sp)
    4b08:	dac01417 	ldw	r11,80(sp)
    4b0c:	db001517 	ldw	r12,84(sp)
    4b10:	db401617 	ldw	r13,88(sp)
    4b14:	3440612e 	bgeu	r6,r17,4c9c <__muldf3+0x318>
    4b18:	0009883a 	mov	r4,zero
    4b1c:	5105883a 	add	r2,r10,r4
    4b20:	128d803a 	cmpltu	r6,r2,r10
    4b24:	5d07883a 	add	r3,r11,r20
    4b28:	30cd883a 	add	r6,r6,r3
    4b2c:	0021883a 	mov	r16,zero
    4b30:	04400044 	movi	r17,1
    4b34:	1025883a 	mov	r18,r2
    4b38:	3027883a 	mov	r19,r6
    4b3c:	32c06236 	bltu	r6,r11,4cc8 <__muldf3+0x344>
    4b40:	59807a26 	beq	r11,r6,4d2c <__muldf3+0x3a8>
    4b44:	680b883a 	mov	r5,r13
    4b48:	b80f883a 	mov	r7,r23
    4b4c:	6009883a 	mov	r4,r12
    4b50:	b00d883a 	mov	r6,r22
    4b54:	00050e80 	call	50e8 <__muldi3>
    4b58:	1009883a 	mov	r4,r2
    4b5c:	000f883a 	mov	r7,zero
    4b60:	1545883a 	add	r2,r2,r21
    4b64:	1111803a 	cmpltu	r8,r2,r4
    4b68:	19c7883a 	add	r3,r3,r7
    4b6c:	40c7883a 	add	r3,r8,r3
    4b70:	88cb883a 	add	r5,r17,r3
    4b74:	d8c00617 	ldw	r3,24(sp)
    4b78:	8089883a 	add	r4,r16,r2
    4b7c:	d8800b17 	ldw	r2,44(sp)
    4b80:	18c00104 	addi	r3,r3,4
    4b84:	240d803a 	cmpltu	r6,r4,r16
    4b88:	10c7883a 	add	r3,r2,r3
    4b8c:	2013883a 	mov	r9,r4
    4b90:	d8800a17 	ldw	r2,40(sp)
    4b94:	d9000517 	ldw	r4,20(sp)
    4b98:	314d883a 	add	r6,r6,r5
    4b9c:	3015883a 	mov	r10,r6
    4ba0:	2088c03a 	cmpne	r4,r4,r2
    4ba4:	00880034 	movhi	r2,8192
    4ba8:	10bfffc4 	addi	r2,r2,-1
    4bac:	d9000f15 	stw	r4,60(sp)
    4bb0:	d8c01015 	stw	r3,64(sp)
    4bb4:	1180162e 	bgeu	r2,r6,4c10 <__muldf3+0x28c>
    4bb8:	1811883a 	mov	r8,r3
    4bbc:	101f883a 	mov	r15,r2
    4bc0:	980497fa 	slli	r2,r19,31
    4bc4:	9016d07a 	srli	r11,r18,1
    4bc8:	500697fa 	slli	r3,r10,31
    4bcc:	480cd07a 	srli	r6,r9,1
    4bd0:	500ed07a 	srli	r7,r10,1
    4bd4:	12d6b03a 	or	r11,r2,r11
    4bd8:	00800044 	movi	r2,1
    4bdc:	198cb03a 	or	r6,r3,r6
    4be0:	4888703a 	and	r4,r9,r2
    4be4:	9818d07a 	srli	r12,r19,1
    4be8:	001b883a 	mov	r13,zero
    4bec:	03a00034 	movhi	r14,32768
    4bf0:	3013883a 	mov	r9,r6
    4bf4:	3815883a 	mov	r10,r7
    4bf8:	4091883a 	add	r8,r8,r2
    4bfc:	20000226 	beq	r4,zero,4c08 <__muldf3+0x284>
    4c00:	5b64b03a 	or	r18,r11,r13
    4c04:	63a6b03a 	or	r19,r12,r14
    4c08:	7abfed36 	bltu	r15,r10,4bc0 <__muldf3+0x23c>
    4c0c:	da001015 	stw	r8,64(sp)
    4c10:	00840034 	movhi	r2,4096
    4c14:	10bfffc4 	addi	r2,r2,-1
    4c18:	12801436 	bltu	r2,r10,4c6c <__muldf3+0x2e8>
    4c1c:	da001017 	ldw	r8,64(sp)
    4c20:	101f883a 	mov	r15,r2
    4c24:	4a45883a 	add	r2,r9,r9
    4c28:	124d803a 	cmpltu	r6,r2,r9
    4c2c:	5287883a 	add	r3,r10,r10
    4c30:	9497883a 	add	r11,r18,r18
    4c34:	5c8f803a 	cmpltu	r7,r11,r18
    4c38:	9cd9883a 	add	r12,r19,r19
    4c3c:	01000044 	movi	r4,1
    4c40:	30cd883a 	add	r6,r6,r3
    4c44:	3b0f883a 	add	r7,r7,r12
    4c48:	423fffc4 	addi	r8,r8,-1
    4c4c:	1013883a 	mov	r9,r2
    4c50:	3015883a 	mov	r10,r6
    4c54:	111ab03a 	or	r13,r2,r4
    4c58:	98003016 	blt	r19,zero,4d1c <__muldf3+0x398>
    4c5c:	5825883a 	mov	r18,r11
    4c60:	3827883a 	mov	r19,r7
    4c64:	7abfef2e 	bgeu	r15,r10,4c24 <__muldf3+0x2a0>
    4c68:	da001015 	stw	r8,64(sp)
    4c6c:	00803fc4 	movi	r2,255
    4c70:	488e703a 	and	r7,r9,r2
    4c74:	00802004 	movi	r2,128
    4c78:	0007883a 	mov	r3,zero
    4c7c:	0011883a 	mov	r8,zero
    4c80:	38801826 	beq	r7,r2,4ce4 <__muldf3+0x360>
    4c84:	008000c4 	movi	r2,3
    4c88:	d9000e04 	addi	r4,sp,56
    4c8c:	da801215 	stw	r10,72(sp)
    4c90:	d8800e15 	stw	r2,56(sp)
    4c94:	da401115 	stw	r9,68(sp)
    4c98:	003f6a06 	br	4a44 <__muldf3+0xc0>
    4c9c:	89802126 	beq	r17,r6,4d24 <__muldf3+0x3a0>
    4ca0:	0009883a 	mov	r4,zero
    4ca4:	5105883a 	add	r2,r10,r4
    4ca8:	128d803a 	cmpltu	r6,r2,r10
    4cac:	5d07883a 	add	r3,r11,r20
    4cb0:	30cd883a 	add	r6,r6,r3
    4cb4:	0021883a 	mov	r16,zero
    4cb8:	0023883a 	mov	r17,zero
    4cbc:	1025883a 	mov	r18,r2
    4cc0:	3027883a 	mov	r19,r6
    4cc4:	32ff9e2e 	bgeu	r6,r11,4b40 <__muldf3+0x1bc>
    4cc8:	00800044 	movi	r2,1
    4ccc:	8089883a 	add	r4,r16,r2
    4cd0:	240d803a 	cmpltu	r6,r4,r16
    4cd4:	344d883a 	add	r6,r6,r17
    4cd8:	2021883a 	mov	r16,r4
    4cdc:	3023883a 	mov	r17,r6
    4ce0:	003f9806 	br	4b44 <__muldf3+0x1c0>
    4ce4:	403fe71e 	bne	r8,zero,4c84 <__muldf3+0x300>
    4ce8:	01004004 	movi	r4,256
    4cec:	4904703a 	and	r2,r9,r4
    4cf0:	10c4b03a 	or	r2,r2,r3
    4cf4:	103fe31e 	bne	r2,zero,4c84 <__muldf3+0x300>
    4cf8:	94c4b03a 	or	r2,r18,r19
    4cfc:	103fe126 	beq	r2,zero,4c84 <__muldf3+0x300>
    4d00:	49c5883a 	add	r2,r9,r7
    4d04:	1251803a 	cmpltu	r8,r2,r9
    4d08:	4291883a 	add	r8,r8,r10
    4d0c:	013fc004 	movi	r4,-256
    4d10:	1112703a 	and	r9,r2,r4
    4d14:	4015883a 	mov	r10,r8
    4d18:	003fda06 	br	4c84 <__muldf3+0x300>
    4d1c:	6813883a 	mov	r9,r13
    4d20:	003fce06 	br	4c5c <__muldf3+0x2d8>
    4d24:	143f7c36 	bltu	r2,r16,4b18 <__muldf3+0x194>
    4d28:	003fdd06 	br	4ca0 <__muldf3+0x31c>
    4d2c:	12bf852e 	bgeu	r2,r10,4b44 <__muldf3+0x1c0>
    4d30:	003fe506 	br	4cc8 <__muldf3+0x344>
    4d34:	00800084 	movi	r2,2
    4d38:	20bf351e 	bne	r4,r2,4a10 <__muldf3+0x8c>
    4d3c:	01000034 	movhi	r4,0
    4d40:	21197a04 	addi	r4,r4,26088
    4d44:	003f3f06 	br	4a44 <__muldf3+0xc0>

00004d48 <__divdf3>:
    4d48:	deffed04 	addi	sp,sp,-76
    4d4c:	dcc01115 	stw	r19,68(sp)
    4d50:	dcc00404 	addi	r19,sp,16
    4d54:	2011883a 	mov	r8,r4
    4d58:	2813883a 	mov	r9,r5
    4d5c:	dc000e15 	stw	r16,56(sp)
    4d60:	d809883a 	mov	r4,sp
    4d64:	980b883a 	mov	r5,r19
    4d68:	dc000904 	addi	r16,sp,36
    4d6c:	dfc01215 	stw	ra,72(sp)
    4d70:	da400115 	stw	r9,4(sp)
    4d74:	d9c00315 	stw	r7,12(sp)
    4d78:	da000015 	stw	r8,0(sp)
    4d7c:	d9800215 	stw	r6,8(sp)
    4d80:	dc801015 	stw	r18,64(sp)
    4d84:	dc400f15 	stw	r17,60(sp)
    4d88:	00057c80 	call	57c8 <__unpack_d>
    4d8c:	d9000204 	addi	r4,sp,8
    4d90:	800b883a 	mov	r5,r16
    4d94:	00057c80 	call	57c8 <__unpack_d>
    4d98:	d9000417 	ldw	r4,16(sp)
    4d9c:	00800044 	movi	r2,1
    4da0:	11000b2e 	bgeu	r2,r4,4dd0 <__divdf3+0x88>
    4da4:	d9400917 	ldw	r5,36(sp)
    4da8:	1140762e 	bgeu	r2,r5,4f84 <__divdf3+0x23c>
    4dac:	d8800517 	ldw	r2,20(sp)
    4db0:	d8c00a17 	ldw	r3,40(sp)
    4db4:	01800104 	movi	r6,4
    4db8:	10c4f03a 	xor	r2,r2,r3
    4dbc:	d8800515 	stw	r2,20(sp)
    4dc0:	21800226 	beq	r4,r6,4dcc <__divdf3+0x84>
    4dc4:	00800084 	movi	r2,2
    4dc8:	2080141e 	bne	r4,r2,4e1c <__divdf3+0xd4>
    4dcc:	29000926 	beq	r5,r4,4df4 <__divdf3+0xac>
    4dd0:	9809883a 	mov	r4,r19
    4dd4:	00054b40 	call	54b4 <__pack_d>
    4dd8:	dfc01217 	ldw	ra,72(sp)
    4ddc:	dcc01117 	ldw	r19,68(sp)
    4de0:	dc801017 	ldw	r18,64(sp)
    4de4:	dc400f17 	ldw	r17,60(sp)
    4de8:	dc000e17 	ldw	r16,56(sp)
    4dec:	dec01304 	addi	sp,sp,76
    4df0:	f800283a 	ret
    4df4:	01000034 	movhi	r4,0
    4df8:	21197a04 	addi	r4,r4,26088
    4dfc:	00054b40 	call	54b4 <__pack_d>
    4e00:	dfc01217 	ldw	ra,72(sp)
    4e04:	dcc01117 	ldw	r19,68(sp)
    4e08:	dc801017 	ldw	r18,64(sp)
    4e0c:	dc400f17 	ldw	r17,60(sp)
    4e10:	dc000e17 	ldw	r16,56(sp)
    4e14:	dec01304 	addi	sp,sp,76
    4e18:	f800283a 	ret
    4e1c:	29805b26 	beq	r5,r6,4f8c <__divdf3+0x244>
    4e20:	28802d26 	beq	r5,r2,4ed8 <__divdf3+0x190>
    4e24:	d8c00617 	ldw	r3,24(sp)
    4e28:	d8800b17 	ldw	r2,44(sp)
    4e2c:	d9c00817 	ldw	r7,32(sp)
    4e30:	dc400d17 	ldw	r17,52(sp)
    4e34:	188bc83a 	sub	r5,r3,r2
    4e38:	d9800717 	ldw	r6,28(sp)
    4e3c:	dc000c17 	ldw	r16,48(sp)
    4e40:	d9400615 	stw	r5,24(sp)
    4e44:	3c403836 	bltu	r7,r17,4f28 <__divdf3+0x1e0>
    4e48:	89c03626 	beq	r17,r7,4f24 <__divdf3+0x1dc>
    4e4c:	0015883a 	mov	r10,zero
    4e50:	001d883a 	mov	r14,zero
    4e54:	02c40034 	movhi	r11,4096
    4e58:	001f883a 	mov	r15,zero
    4e5c:	003f883a 	mov	ra,zero
    4e60:	04800f44 	movi	r18,61
    4e64:	00000f06 	br	4ea4 <__divdf3+0x15c>
    4e68:	601d883a 	mov	r14,r12
    4e6c:	681f883a 	mov	r15,r13
    4e70:	400d883a 	mov	r6,r8
    4e74:	100f883a 	mov	r7,r2
    4e78:	3191883a 	add	r8,r6,r6
    4e7c:	5808d07a 	srli	r4,r11,1
    4e80:	4185803a 	cmpltu	r2,r8,r6
    4e84:	39d3883a 	add	r9,r7,r7
    4e88:	28c6b03a 	or	r3,r5,r3
    4e8c:	1245883a 	add	r2,r2,r9
    4e90:	1815883a 	mov	r10,r3
    4e94:	2017883a 	mov	r11,r4
    4e98:	400d883a 	mov	r6,r8
    4e9c:	100f883a 	mov	r7,r2
    4ea0:	fc801726 	beq	ra,r18,4f00 <__divdf3+0x1b8>
    4ea4:	580a97fa 	slli	r5,r11,31
    4ea8:	5006d07a 	srli	r3,r10,1
    4eac:	ffc00044 	addi	ra,ra,1
    4eb0:	3c7ff136 	bltu	r7,r17,4e78 <__divdf3+0x130>
    4eb4:	3411c83a 	sub	r8,r6,r16
    4eb8:	3205803a 	cmpltu	r2,r6,r8
    4ebc:	3c53c83a 	sub	r9,r7,r17
    4ec0:	7298b03a 	or	r12,r14,r10
    4ec4:	7adab03a 	or	r13,r15,r11
    4ec8:	4885c83a 	sub	r2,r9,r2
    4ecc:	89ffe61e 	bne	r17,r7,4e68 <__divdf3+0x120>
    4ed0:	343fe936 	bltu	r6,r16,4e78 <__divdf3+0x130>
    4ed4:	003fe406 	br	4e68 <__divdf3+0x120>
    4ed8:	9809883a 	mov	r4,r19
    4edc:	d9800415 	stw	r6,16(sp)
    4ee0:	00054b40 	call	54b4 <__pack_d>
    4ee4:	dfc01217 	ldw	ra,72(sp)
    4ee8:	dcc01117 	ldw	r19,68(sp)
    4eec:	dc801017 	ldw	r18,64(sp)
    4ef0:	dc400f17 	ldw	r17,60(sp)
    4ef4:	dc000e17 	ldw	r16,56(sp)
    4ef8:	dec01304 	addi	sp,sp,76
    4efc:	f800283a 	ret
    4f00:	00803fc4 	movi	r2,255
    4f04:	7090703a 	and	r8,r14,r2
    4f08:	00802004 	movi	r2,128
    4f0c:	0007883a 	mov	r3,zero
    4f10:	0013883a 	mov	r9,zero
    4f14:	40800d26 	beq	r8,r2,4f4c <__divdf3+0x204>
    4f18:	dbc00815 	stw	r15,32(sp)
    4f1c:	db800715 	stw	r14,28(sp)
    4f20:	003fab06 	br	4dd0 <__divdf3+0x88>
    4f24:	343fc92e 	bgeu	r6,r16,4e4c <__divdf3+0x104>
    4f28:	3185883a 	add	r2,r6,r6
    4f2c:	1189803a 	cmpltu	r4,r2,r6
    4f30:	39c7883a 	add	r3,r7,r7
    4f34:	20c9883a 	add	r4,r4,r3
    4f38:	297fffc4 	addi	r5,r5,-1
    4f3c:	100d883a 	mov	r6,r2
    4f40:	200f883a 	mov	r7,r4
    4f44:	d9400615 	stw	r5,24(sp)
    4f48:	003fc006 	br	4e4c <__divdf3+0x104>
    4f4c:	483ff21e 	bne	r9,zero,4f18 <__divdf3+0x1d0>
    4f50:	01004004 	movi	r4,256
    4f54:	7104703a 	and	r2,r14,r4
    4f58:	10c4b03a 	or	r2,r2,r3
    4f5c:	103fee1e 	bne	r2,zero,4f18 <__divdf3+0x1d0>
    4f60:	31c4b03a 	or	r2,r6,r7
    4f64:	103fec26 	beq	r2,zero,4f18 <__divdf3+0x1d0>
    4f68:	7205883a 	add	r2,r14,r8
    4f6c:	1391803a 	cmpltu	r8,r2,r14
    4f70:	43d1883a 	add	r8,r8,r15
    4f74:	013fc004 	movi	r4,-256
    4f78:	111c703a 	and	r14,r2,r4
    4f7c:	401f883a 	mov	r15,r8
    4f80:	003fe506 	br	4f18 <__divdf3+0x1d0>
    4f84:	8009883a 	mov	r4,r16
    4f88:	003f9206 	br	4dd4 <__divdf3+0x8c>
    4f8c:	9809883a 	mov	r4,r19
    4f90:	d8000715 	stw	zero,28(sp)
    4f94:	d8000815 	stw	zero,32(sp)
    4f98:	d8000615 	stw	zero,24(sp)
    4f9c:	003f8d06 	br	4dd4 <__divdf3+0x8c>

00004fa0 <__gedf2>:
    4fa0:	deffef04 	addi	sp,sp,-68
    4fa4:	dc400f15 	stw	r17,60(sp)
    4fa8:	dc400404 	addi	r17,sp,16
    4fac:	2005883a 	mov	r2,r4
    4fb0:	2807883a 	mov	r3,r5
    4fb4:	dc000e15 	stw	r16,56(sp)
    4fb8:	d809883a 	mov	r4,sp
    4fbc:	880b883a 	mov	r5,r17
    4fc0:	dc000904 	addi	r16,sp,36
    4fc4:	d8c00115 	stw	r3,4(sp)
    4fc8:	d8800015 	stw	r2,0(sp)
    4fcc:	d9800215 	stw	r6,8(sp)
    4fd0:	dfc01015 	stw	ra,64(sp)
    4fd4:	d9c00315 	stw	r7,12(sp)
    4fd8:	00057c80 	call	57c8 <__unpack_d>
    4fdc:	d9000204 	addi	r4,sp,8
    4fe0:	800b883a 	mov	r5,r16
    4fe4:	00057c80 	call	57c8 <__unpack_d>
    4fe8:	d8800417 	ldw	r2,16(sp)
    4fec:	00c00044 	movi	r3,1
    4ff0:	01bfffc4 	movi	r6,-1
    4ff4:	1880062e 	bgeu	r3,r2,5010 <__gedf2+0x70>
    4ff8:	d8800917 	ldw	r2,36(sp)
    4ffc:	8809883a 	mov	r4,r17
    5000:	800b883a 	mov	r5,r16
    5004:	1880022e 	bgeu	r3,r2,5010 <__gedf2+0x70>
    5008:	00059000 	call	5900 <__fpcmp_parts_d>
    500c:	100d883a 	mov	r6,r2
    5010:	3005883a 	mov	r2,r6
    5014:	dfc01017 	ldw	ra,64(sp)
    5018:	dc400f17 	ldw	r17,60(sp)
    501c:	dc000e17 	ldw	r16,56(sp)
    5020:	dec01104 	addi	sp,sp,68
    5024:	f800283a 	ret

00005028 <__ltdf2>:
    5028:	deffef04 	addi	sp,sp,-68
    502c:	dc400f15 	stw	r17,60(sp)
    5030:	dc400404 	addi	r17,sp,16
    5034:	2005883a 	mov	r2,r4
    5038:	2807883a 	mov	r3,r5
    503c:	dc000e15 	stw	r16,56(sp)
    5040:	d809883a 	mov	r4,sp
    5044:	880b883a 	mov	r5,r17
    5048:	dc000904 	addi	r16,sp,36
    504c:	d8c00115 	stw	r3,4(sp)
    5050:	d8800015 	stw	r2,0(sp)
    5054:	d9800215 	stw	r6,8(sp)
    5058:	dfc01015 	stw	ra,64(sp)
    505c:	d9c00315 	stw	r7,12(sp)
    5060:	00057c80 	call	57c8 <__unpack_d>
    5064:	d9000204 	addi	r4,sp,8
    5068:	800b883a 	mov	r5,r16
    506c:	00057c80 	call	57c8 <__unpack_d>
    5070:	d8800417 	ldw	r2,16(sp)
    5074:	00c00044 	movi	r3,1
    5078:	180d883a 	mov	r6,r3
    507c:	1880062e 	bgeu	r3,r2,5098 <__ltdf2+0x70>
    5080:	d8800917 	ldw	r2,36(sp)
    5084:	8809883a 	mov	r4,r17
    5088:	800b883a 	mov	r5,r16
    508c:	1880022e 	bgeu	r3,r2,5098 <__ltdf2+0x70>
    5090:	00059000 	call	5900 <__fpcmp_parts_d>
    5094:	100d883a 	mov	r6,r2
    5098:	3005883a 	mov	r2,r6
    509c:	dfc01017 	ldw	ra,64(sp)
    50a0:	dc400f17 	ldw	r17,60(sp)
    50a4:	dc000e17 	ldw	r16,56(sp)
    50a8:	dec01104 	addi	sp,sp,68
    50ac:	f800283a 	ret

000050b0 <__make_dp>:
    50b0:	defff904 	addi	sp,sp,-28
    50b4:	d8c00717 	ldw	r3,28(sp)
    50b8:	d9000015 	stw	r4,0(sp)
    50bc:	d809883a 	mov	r4,sp
    50c0:	dfc00515 	stw	ra,20(sp)
    50c4:	d9c00615 	stw	r7,24(sp)
    50c8:	d9400115 	stw	r5,4(sp)
    50cc:	d9800215 	stw	r6,8(sp)
    50d0:	d8c00415 	stw	r3,16(sp)
    50d4:	d9c00315 	stw	r7,12(sp)
    50d8:	00054b40 	call	54b4 <__pack_d>
    50dc:	dfc00517 	ldw	ra,20(sp)
    50e0:	dec00704 	addi	sp,sp,28
    50e4:	f800283a 	ret

000050e8 <__muldi3>:
    50e8:	defff204 	addi	sp,sp,-56
    50ec:	df000c15 	stw	fp,48(sp)
    50f0:	3038d43a 	srli	fp,r6,16
    50f4:	dd000815 	stw	r20,32(sp)
    50f8:	dc400515 	stw	r17,20(sp)
    50fc:	2028d43a 	srli	r20,r4,16
    5100:	247fffcc 	andi	r17,r4,65535
    5104:	dc000415 	stw	r16,16(sp)
    5108:	343fffcc 	andi	r16,r6,65535
    510c:	dcc00715 	stw	r19,28(sp)
    5110:	d9000015 	stw	r4,0(sp)
    5114:	2827883a 	mov	r19,r5
    5118:	8809883a 	mov	r4,r17
    511c:	d9400115 	stw	r5,4(sp)
    5120:	800b883a 	mov	r5,r16
    5124:	d9800215 	stw	r6,8(sp)
    5128:	dfc00d15 	stw	ra,52(sp)
    512c:	d9c00315 	stw	r7,12(sp)
    5130:	dd800a15 	stw	r22,40(sp)
    5134:	dd400915 	stw	r21,36(sp)
    5138:	302d883a 	mov	r22,r6
    513c:	ddc00b15 	stw	r23,44(sp)
    5140:	dc800615 	stw	r18,24(sp)
    5144:	00059c80 	call	59c8 <__mulsi3>
    5148:	8809883a 	mov	r4,r17
    514c:	e00b883a 	mov	r5,fp
    5150:	102b883a 	mov	r21,r2
    5154:	00059c80 	call	59c8 <__mulsi3>
    5158:	800b883a 	mov	r5,r16
    515c:	a009883a 	mov	r4,r20
    5160:	1023883a 	mov	r17,r2
    5164:	00059c80 	call	59c8 <__mulsi3>
    5168:	a009883a 	mov	r4,r20
    516c:	e00b883a 	mov	r5,fp
    5170:	1021883a 	mov	r16,r2
    5174:	00059c80 	call	59c8 <__mulsi3>
    5178:	a8ffffcc 	andi	r3,r21,65535
    517c:	a82ad43a 	srli	r21,r21,16
    5180:	8c23883a 	add	r17,r17,r16
    5184:	1011883a 	mov	r8,r2
    5188:	ac6b883a 	add	r21,r21,r17
    518c:	a804943a 	slli	r2,r21,16
    5190:	b009883a 	mov	r4,r22
    5194:	980b883a 	mov	r5,r19
    5198:	10c7883a 	add	r3,r2,r3
    519c:	a812d43a 	srli	r9,r21,16
    51a0:	180d883a 	mov	r6,r3
    51a4:	ac00022e 	bgeu	r21,r16,51b0 <__muldi3+0xc8>
    51a8:	00800074 	movhi	r2,1
    51ac:	4091883a 	add	r8,r8,r2
    51b0:	4267883a 	add	r19,r8,r9
    51b4:	302d883a 	mov	r22,r6
    51b8:	00059c80 	call	59c8 <__mulsi3>
    51bc:	d9400317 	ldw	r5,12(sp)
    51c0:	d9000017 	ldw	r4,0(sp)
    51c4:	1023883a 	mov	r17,r2
    51c8:	00059c80 	call	59c8 <__mulsi3>
    51cc:	14cb883a 	add	r5,r2,r19
    51d0:	894b883a 	add	r5,r17,r5
    51d4:	b005883a 	mov	r2,r22
    51d8:	2807883a 	mov	r3,r5
    51dc:	dfc00d17 	ldw	ra,52(sp)
    51e0:	df000c17 	ldw	fp,48(sp)
    51e4:	ddc00b17 	ldw	r23,44(sp)
    51e8:	dd800a17 	ldw	r22,40(sp)
    51ec:	dd400917 	ldw	r21,36(sp)
    51f0:	dd000817 	ldw	r20,32(sp)
    51f4:	dcc00717 	ldw	r19,28(sp)
    51f8:	dc800617 	ldw	r18,24(sp)
    51fc:	dc400517 	ldw	r17,20(sp)
    5200:	dc000417 	ldw	r16,16(sp)
    5204:	dec00e04 	addi	sp,sp,56
    5208:	f800283a 	ret

0000520c <__clzsi2>:
    520c:	00bfffd4 	movui	r2,65535
    5210:	11000e36 	bltu	r2,r4,524c <__clzsi2+0x40>
    5214:	00803fc4 	movi	r2,255
    5218:	01400204 	movi	r5,8
    521c:	0007883a 	mov	r3,zero
    5220:	11001036 	bltu	r2,r4,5264 <__clzsi2+0x58>
    5224:	000b883a 	mov	r5,zero
    5228:	20c6d83a 	srl	r3,r4,r3
    522c:	00800034 	movhi	r2,0
    5230:	10997f04 	addi	r2,r2,26108
    5234:	1887883a 	add	r3,r3,r2
    5238:	18800003 	ldbu	r2,0(r3)
    523c:	00c00804 	movi	r3,32
    5240:	2885883a 	add	r2,r5,r2
    5244:	1885c83a 	sub	r2,r3,r2
    5248:	f800283a 	ret
    524c:	01400404 	movi	r5,16
    5250:	00804034 	movhi	r2,256
    5254:	10bfffc4 	addi	r2,r2,-1
    5258:	2807883a 	mov	r3,r5
    525c:	113ff22e 	bgeu	r2,r4,5228 <__clzsi2+0x1c>
    5260:	01400604 	movi	r5,24
    5264:	2807883a 	mov	r3,r5
    5268:	20c6d83a 	srl	r3,r4,r3
    526c:	00800034 	movhi	r2,0
    5270:	10997f04 	addi	r2,r2,26108
    5274:	1887883a 	add	r3,r3,r2
    5278:	18800003 	ldbu	r2,0(r3)
    527c:	00c00804 	movi	r3,32
    5280:	2885883a 	add	r2,r5,r2
    5284:	1885c83a 	sub	r2,r3,r2
    5288:	f800283a 	ret

0000528c <__pack_f>:
    528c:	20c00017 	ldw	r3,0(r4)
    5290:	01c00044 	movi	r7,1
    5294:	21800317 	ldw	r6,12(r4)
    5298:	21400117 	ldw	r5,4(r4)
    529c:	38c02d2e 	bgeu	r7,r3,5354 <__pack_f+0xc8>
    52a0:	00800104 	movi	r2,4
    52a4:	18802826 	beq	r3,r2,5348 <__pack_f+0xbc>
    52a8:	00800084 	movi	r2,2
    52ac:	18800126 	beq	r3,r2,52b4 <__pack_f+0x28>
    52b0:	3000101e 	bne	r6,zero,52f4 <__pack_f+0x68>
    52b4:	000d883a 	mov	r6,zero
    52b8:	0007883a 	mov	r3,zero
    52bc:	19003fcc 	andi	r4,r3,255
    52c0:	200895fa 	slli	r4,r4,23
    52c4:	00c02034 	movhi	r3,128
    52c8:	18ffffc4 	addi	r3,r3,-1
    52cc:	30c6703a 	and	r3,r6,r3
    52d0:	10a0002c 	andhi	r2,r2,32768
    52d4:	10c4b03a 	or	r2,r2,r3
    52d8:	280a97fa 	slli	r5,r5,31
    52dc:	1104b03a 	or	r2,r2,r4
    52e0:	00e00034 	movhi	r3,32768
    52e4:	18ffffc4 	addi	r3,r3,-1
    52e8:	10c4703a 	and	r2,r2,r3
    52ec:	1144b03a 	or	r2,r2,r5
    52f0:	f800283a 	ret
    52f4:	21000217 	ldw	r4,8(r4)
    52f8:	00bfe084 	movi	r2,-126
    52fc:	20801b16 	blt	r4,r2,536c <__pack_f+0xe0>
    5300:	00801fc4 	movi	r2,127
    5304:	11001016 	blt	r2,r4,5348 <__pack_f+0xbc>
    5308:	308e703a 	and	r7,r6,r2
    530c:	2087883a 	add	r3,r4,r2
    5310:	00801004 	movi	r2,64
    5314:	38800526 	beq	r7,r2,532c <__pack_f+0xa0>
    5318:	31800fc4 	addi	r6,r6,63
    531c:	30000716 	blt	r6,zero,533c <__pack_f+0xb0>
    5320:	300490ba 	slli	r2,r6,2
    5324:	100cd27a 	srli	r6,r2,9
    5328:	003fe406 	br	52bc <__pack_f+0x30>
    532c:	3080200c 	andi	r2,r6,128
    5330:	103ffa26 	beq	r2,zero,531c <__pack_f+0x90>
    5334:	31cd883a 	add	r6,r6,r7
    5338:	003ff806 	br	531c <__pack_f+0x90>
    533c:	300cd07a 	srli	r6,r6,1
    5340:	18c00044 	addi	r3,r3,1
    5344:	003ff606 	br	5320 <__pack_f+0x94>
    5348:	000d883a 	mov	r6,zero
    534c:	00ffffc4 	movi	r3,-1
    5350:	003fda06 	br	52bc <__pack_f+0x30>
    5354:	31800434 	orhi	r6,r6,16
    5358:	00802034 	movhi	r2,128
    535c:	10bfffc4 	addi	r2,r2,-1
    5360:	308c703a 	and	r6,r6,r2
    5364:	00ffffc4 	movi	r3,-1
    5368:	003fd406 	br	52bc <__pack_f+0x30>
    536c:	1109c83a 	sub	r4,r2,r4
    5370:	00800644 	movi	r2,25
    5374:	11001216 	blt	r2,r4,53c0 <__pack_f+0x134>
    5378:	3904983a 	sll	r2,r7,r4
    537c:	3106d83a 	srl	r3,r6,r4
    5380:	10bfffc4 	addi	r2,r2,-1
    5384:	3084703a 	and	r2,r6,r2
    5388:	1004c03a 	cmpne	r2,r2,zero
    538c:	1886b03a 	or	r3,r3,r2
    5390:	19001fcc 	andi	r4,r3,127
    5394:	00801004 	movi	r2,64
    5398:	20800c26 	beq	r4,r2,53cc <__pack_f+0x140>
    539c:	18c00fc4 	addi	r3,r3,63
    53a0:	00900034 	movhi	r2,16384
    53a4:	10bfffc4 	addi	r2,r2,-1
    53a8:	180cd1fa 	srli	r6,r3,7
    53ac:	10c7803a 	cmpltu	r3,r2,r3
    53b0:	00802034 	movhi	r2,128
    53b4:	10bfffc4 	addi	r2,r2,-1
    53b8:	308c703a 	and	r6,r6,r2
    53bc:	003fbf06 	br	52bc <__pack_f+0x30>
    53c0:	0007883a 	mov	r3,zero
    53c4:	000d883a 	mov	r6,zero
    53c8:	003ff906 	br	53b0 <__pack_f+0x124>
    53cc:	1880200c 	andi	r2,r3,128
    53d0:	10000126 	beq	r2,zero,53d8 <__pack_f+0x14c>
    53d4:	1907883a 	add	r3,r3,r4
    53d8:	180cd1fa 	srli	r6,r3,7
    53dc:	00900034 	movhi	r2,16384
    53e0:	10bfffc4 	addi	r2,r2,-1
    53e4:	10c7803a 	cmpltu	r3,r2,r3
    53e8:	003ff106 	br	53b0 <__pack_f+0x124>

000053ec <__unpack_f>:
    53ec:	21800017 	ldw	r6,0(r4)
    53f0:	00c02034 	movhi	r3,128
    53f4:	18ffffc4 	addi	r3,r3,-1
    53f8:	3004d5fa 	srli	r2,r6,23
    53fc:	3008d7fa 	srli	r4,r6,31
    5400:	30ce703a 	and	r7,r6,r3
    5404:	10c03fcc 	andi	r3,r2,255
    5408:	29000115 	stw	r4,4(r5)
    540c:	1800131e 	bne	r3,zero,545c <__unpack_f+0x70>
    5410:	38000f26 	beq	r7,zero,5450 <__unpack_f+0x64>
    5414:	380691fa 	slli	r3,r7,7
    5418:	01bfe084 	movi	r6,-126
    541c:	008000c4 	movi	r2,3
    5420:	01100034 	movhi	r4,16384
    5424:	213fffc4 	addi	r4,r4,-1
    5428:	28800015 	stw	r2,0(r5)
    542c:	29800215 	stw	r6,8(r5)
    5430:	20c00536 	bltu	r4,r3,5448 <__unpack_f+0x5c>
    5434:	3005883a 	mov	r2,r6
    5438:	18c7883a 	add	r3,r3,r3
    543c:	10bfffc4 	addi	r2,r2,-1
    5440:	20fffd2e 	bgeu	r4,r3,5438 <__unpack_f+0x4c>
    5444:	28800215 	stw	r2,8(r5)
    5448:	28c00315 	stw	r3,12(r5)
    544c:	f800283a 	ret
    5450:	00800084 	movi	r2,2
    5454:	28800015 	stw	r2,0(r5)
    5458:	f800283a 	ret
    545c:	00803fc4 	movi	r2,255
    5460:	18800826 	beq	r3,r2,5484 <__unpack_f+0x98>
    5464:	380491fa 	slli	r2,r7,7
    5468:	18ffe044 	addi	r3,r3,-127
    546c:	28c00215 	stw	r3,8(r5)
    5470:	10900034 	orhi	r2,r2,16384
    5474:	28800315 	stw	r2,12(r5)
    5478:	008000c4 	movi	r2,3
    547c:	28800015 	stw	r2,0(r5)
    5480:	f800283a 	ret
    5484:	3800031e 	bne	r7,zero,5494 <__unpack_f+0xa8>
    5488:	00800104 	movi	r2,4
    548c:	28800015 	stw	r2,0(r5)
    5490:	f800283a 	ret
    5494:	3080042c 	andhi	r2,r6,16
    5498:	10000426 	beq	r2,zero,54ac <__unpack_f+0xc0>
    549c:	00800044 	movi	r2,1
    54a0:	28800015 	stw	r2,0(r5)
    54a4:	29c00315 	stw	r7,12(r5)
    54a8:	f800283a 	ret
    54ac:	28000015 	stw	zero,0(r5)
    54b0:	003ffc06 	br	54a4 <__unpack_f+0xb8>

000054b4 <__pack_d>:
    54b4:	20c00017 	ldw	r3,0(r4)
    54b8:	defffd04 	addi	sp,sp,-12
    54bc:	dc000015 	stw	r16,0(sp)
    54c0:	dc800215 	stw	r18,8(sp)
    54c4:	dc400115 	stw	r17,4(sp)
    54c8:	00800044 	movi	r2,1
    54cc:	22000317 	ldw	r8,12(r4)
    54d0:	001f883a 	mov	r15,zero
    54d4:	22400417 	ldw	r9,16(r4)
    54d8:	24000117 	ldw	r16,4(r4)
    54dc:	10c0552e 	bgeu	r2,r3,5634 <__pack_d+0x180>
    54e0:	00800104 	movi	r2,4
    54e4:	18804f26 	beq	r3,r2,5624 <__pack_d+0x170>
    54e8:	00800084 	movi	r2,2
    54ec:	18800226 	beq	r3,r2,54f8 <__pack_d+0x44>
    54f0:	4244b03a 	or	r2,r8,r9
    54f4:	10001a1e 	bne	r2,zero,5560 <__pack_d+0xac>
    54f8:	000d883a 	mov	r6,zero
    54fc:	000f883a 	mov	r7,zero
    5500:	0011883a 	mov	r8,zero
    5504:	00800434 	movhi	r2,16
    5508:	10bfffc4 	addi	r2,r2,-1
    550c:	301d883a 	mov	r14,r6
    5510:	3884703a 	and	r2,r7,r2
    5514:	400a953a 	slli	r5,r8,20
    5518:	79bffc2c 	andhi	r6,r15,65520
    551c:	308cb03a 	or	r6,r6,r2
    5520:	00e00434 	movhi	r3,32784
    5524:	18ffffc4 	addi	r3,r3,-1
    5528:	800497fa 	slli	r2,r16,31
    552c:	30c6703a 	and	r3,r6,r3
    5530:	1946b03a 	or	r3,r3,r5
    5534:	01600034 	movhi	r5,32768
    5538:	297fffc4 	addi	r5,r5,-1
    553c:	194a703a 	and	r5,r3,r5
    5540:	288ab03a 	or	r5,r5,r2
    5544:	2807883a 	mov	r3,r5
    5548:	7005883a 	mov	r2,r14
    554c:	dc800217 	ldw	r18,8(sp)
    5550:	dc400117 	ldw	r17,4(sp)
    5554:	dc000017 	ldw	r16,0(sp)
    5558:	dec00304 	addi	sp,sp,12
    555c:	f800283a 	ret
    5560:	21000217 	ldw	r4,8(r4)
    5564:	00bf0084 	movi	r2,-1022
    5568:	20803f16 	blt	r4,r2,5668 <__pack_d+0x1b4>
    556c:	0080ffc4 	movi	r2,1023
    5570:	11002c16 	blt	r2,r4,5624 <__pack_d+0x170>
    5574:	00803fc4 	movi	r2,255
    5578:	408c703a 	and	r6,r8,r2
    557c:	00802004 	movi	r2,128
    5580:	0007883a 	mov	r3,zero
    5584:	000f883a 	mov	r7,zero
    5588:	2280ffc4 	addi	r10,r4,1023
    558c:	30801e26 	beq	r6,r2,5608 <__pack_d+0x154>
    5590:	00801fc4 	movi	r2,127
    5594:	4089883a 	add	r4,r8,r2
    5598:	220d803a 	cmpltu	r6,r4,r8
    559c:	324d883a 	add	r6,r6,r9
    55a0:	2011883a 	mov	r8,r4
    55a4:	3013883a 	mov	r9,r6
    55a8:	00880034 	movhi	r2,8192
    55ac:	10bfffc4 	addi	r2,r2,-1
    55b0:	12400d36 	bltu	r2,r9,55e8 <__pack_d+0x134>
    55b4:	4804963a 	slli	r2,r9,24
    55b8:	400cd23a 	srli	r6,r8,8
    55bc:	480ed23a 	srli	r7,r9,8
    55c0:	013fffc4 	movi	r4,-1
    55c4:	118cb03a 	or	r6,r2,r6
    55c8:	01400434 	movhi	r5,16
    55cc:	297fffc4 	addi	r5,r5,-1
    55d0:	3104703a 	and	r2,r6,r4
    55d4:	3946703a 	and	r3,r7,r5
    55d8:	5201ffcc 	andi	r8,r10,2047
    55dc:	100d883a 	mov	r6,r2
    55e0:	180f883a 	mov	r7,r3
    55e4:	003fc706 	br	5504 <__pack_d+0x50>
    55e8:	480897fa 	slli	r4,r9,31
    55ec:	4004d07a 	srli	r2,r8,1
    55f0:	4806d07a 	srli	r3,r9,1
    55f4:	52800044 	addi	r10,r10,1
    55f8:	2084b03a 	or	r2,r4,r2
    55fc:	1011883a 	mov	r8,r2
    5600:	1813883a 	mov	r9,r3
    5604:	003feb06 	br	55b4 <__pack_d+0x100>
    5608:	383fe11e 	bne	r7,zero,5590 <__pack_d+0xdc>
    560c:	01004004 	movi	r4,256
    5610:	4104703a 	and	r2,r8,r4
    5614:	10c4b03a 	or	r2,r2,r3
    5618:	103fe326 	beq	r2,zero,55a8 <__pack_d+0xf4>
    561c:	3005883a 	mov	r2,r6
    5620:	003fdc06 	br	5594 <__pack_d+0xe0>
    5624:	000d883a 	mov	r6,zero
    5628:	000f883a 	mov	r7,zero
    562c:	0201ffc4 	movi	r8,2047
    5630:	003fb406 	br	5504 <__pack_d+0x50>
    5634:	0005883a 	mov	r2,zero
    5638:	00c00234 	movhi	r3,8
    563c:	408cb03a 	or	r6,r8,r2
    5640:	48ceb03a 	or	r7,r9,r3
    5644:	013fffc4 	movi	r4,-1
    5648:	01400434 	movhi	r5,16
    564c:	297fffc4 	addi	r5,r5,-1
    5650:	3104703a 	and	r2,r6,r4
    5654:	3946703a 	and	r3,r7,r5
    5658:	100d883a 	mov	r6,r2
    565c:	180f883a 	mov	r7,r3
    5660:	0201ffc4 	movi	r8,2047
    5664:	003fa706 	br	5504 <__pack_d+0x50>
    5668:	1109c83a 	sub	r4,r2,r4
    566c:	00800e04 	movi	r2,56
    5670:	11004316 	blt	r2,r4,5780 <__pack_d+0x2cc>
    5674:	21fff804 	addi	r7,r4,-32
    5678:	38004516 	blt	r7,zero,5790 <__pack_d+0x2dc>
    567c:	49d8d83a 	srl	r12,r9,r7
    5680:	001b883a 	mov	r13,zero
    5684:	0023883a 	mov	r17,zero
    5688:	01400044 	movi	r5,1
    568c:	0025883a 	mov	r18,zero
    5690:	38004716 	blt	r7,zero,57b0 <__pack_d+0x2fc>
    5694:	29d6983a 	sll	r11,r5,r7
    5698:	0015883a 	mov	r10,zero
    569c:	00bfffc4 	movi	r2,-1
    56a0:	5089883a 	add	r4,r10,r2
    56a4:	588b883a 	add	r5,r11,r2
    56a8:	228d803a 	cmpltu	r6,r4,r10
    56ac:	314b883a 	add	r5,r6,r5
    56b0:	4104703a 	and	r2,r8,r4
    56b4:	4946703a 	and	r3,r9,r5
    56b8:	10c4b03a 	or	r2,r2,r3
    56bc:	10000226 	beq	r2,zero,56c8 <__pack_d+0x214>
    56c0:	04400044 	movi	r17,1
    56c4:	0025883a 	mov	r18,zero
    56c8:	00803fc4 	movi	r2,255
    56cc:	644eb03a 	or	r7,r12,r17
    56d0:	3892703a 	and	r9,r7,r2
    56d4:	00802004 	movi	r2,128
    56d8:	6c90b03a 	or	r8,r13,r18
    56dc:	0015883a 	mov	r10,zero
    56e0:	48801626 	beq	r9,r2,573c <__pack_d+0x288>
    56e4:	01001fc4 	movi	r4,127
    56e8:	3905883a 	add	r2,r7,r4
    56ec:	11cd803a 	cmpltu	r6,r2,r7
    56f0:	320d883a 	add	r6,r6,r8
    56f4:	100f883a 	mov	r7,r2
    56f8:	00840034 	movhi	r2,4096
    56fc:	10bfffc4 	addi	r2,r2,-1
    5700:	3011883a 	mov	r8,r6
    5704:	0007883a 	mov	r3,zero
    5708:	11801b36 	bltu	r2,r6,5778 <__pack_d+0x2c4>
    570c:	4004963a 	slli	r2,r8,24
    5710:	3808d23a 	srli	r4,r7,8
    5714:	400ad23a 	srli	r5,r8,8
    5718:	1813883a 	mov	r9,r3
    571c:	1108b03a 	or	r4,r2,r4
    5720:	00bfffc4 	movi	r2,-1
    5724:	00c00434 	movhi	r3,16
    5728:	18ffffc4 	addi	r3,r3,-1
    572c:	208c703a 	and	r6,r4,r2
    5730:	28ce703a 	and	r7,r5,r3
    5734:	4a01ffcc 	andi	r8,r9,2047
    5738:	003f7206 	br	5504 <__pack_d+0x50>
    573c:	503fe91e 	bne	r10,zero,56e4 <__pack_d+0x230>
    5740:	01004004 	movi	r4,256
    5744:	3904703a 	and	r2,r7,r4
    5748:	0007883a 	mov	r3,zero
    574c:	10c4b03a 	or	r2,r2,r3
    5750:	10000626 	beq	r2,zero,576c <__pack_d+0x2b8>
    5754:	3a45883a 	add	r2,r7,r9
    5758:	11cd803a 	cmpltu	r6,r2,r7
    575c:	320d883a 	add	r6,r6,r8
    5760:	100f883a 	mov	r7,r2
    5764:	3011883a 	mov	r8,r6
    5768:	0007883a 	mov	r3,zero
    576c:	00840034 	movhi	r2,4096
    5770:	10bfffc4 	addi	r2,r2,-1
    5774:	123fe52e 	bgeu	r2,r8,570c <__pack_d+0x258>
    5778:	00c00044 	movi	r3,1
    577c:	003fe306 	br	570c <__pack_d+0x258>
    5780:	0009883a 	mov	r4,zero
    5784:	0013883a 	mov	r9,zero
    5788:	000b883a 	mov	r5,zero
    578c:	003fe406 	br	5720 <__pack_d+0x26c>
    5790:	4a47883a 	add	r3,r9,r9
    5794:	008007c4 	movi	r2,31
    5798:	1105c83a 	sub	r2,r2,r4
    579c:	1886983a 	sll	r3,r3,r2
    57a0:	4118d83a 	srl	r12,r8,r4
    57a4:	491ad83a 	srl	r13,r9,r4
    57a8:	1b18b03a 	or	r12,r3,r12
    57ac:	003fb506 	br	5684 <__pack_d+0x1d0>
    57b0:	2806d07a 	srli	r3,r5,1
    57b4:	008007c4 	movi	r2,31
    57b8:	1105c83a 	sub	r2,r2,r4
    57bc:	1896d83a 	srl	r11,r3,r2
    57c0:	2914983a 	sll	r10,r5,r4
    57c4:	003fb506 	br	569c <__pack_d+0x1e8>

000057c8 <__unpack_d>:
    57c8:	20c00117 	ldw	r3,4(r4)
    57cc:	22400017 	ldw	r9,0(r4)
    57d0:	00800434 	movhi	r2,16
    57d4:	10bfffc4 	addi	r2,r2,-1
    57d8:	1808d53a 	srli	r4,r3,20
    57dc:	180cd7fa 	srli	r6,r3,31
    57e0:	1894703a 	and	r10,r3,r2
    57e4:	2201ffcc 	andi	r8,r4,2047
    57e8:	281b883a 	mov	r13,r5
    57ec:	4817883a 	mov	r11,r9
    57f0:	29800115 	stw	r6,4(r5)
    57f4:	5019883a 	mov	r12,r10
    57f8:	40001e1e 	bne	r8,zero,5874 <__unpack_d+0xac>
    57fc:	4a84b03a 	or	r2,r9,r10
    5800:	10001926 	beq	r2,zero,5868 <__unpack_d+0xa0>
    5804:	4804d63a 	srli	r2,r9,24
    5808:	500c923a 	slli	r6,r10,8
    580c:	013f0084 	movi	r4,-1022
    5810:	00c40034 	movhi	r3,4096
    5814:	18ffffc4 	addi	r3,r3,-1
    5818:	118cb03a 	or	r6,r2,r6
    581c:	008000c4 	movi	r2,3
    5820:	480a923a 	slli	r5,r9,8
    5824:	68800015 	stw	r2,0(r13)
    5828:	69000215 	stw	r4,8(r13)
    582c:	19800b36 	bltu	r3,r6,585c <__unpack_d+0x94>
    5830:	200f883a 	mov	r7,r4
    5834:	1811883a 	mov	r8,r3
    5838:	2945883a 	add	r2,r5,r5
    583c:	1149803a 	cmpltu	r4,r2,r5
    5840:	3187883a 	add	r3,r6,r6
    5844:	20c9883a 	add	r4,r4,r3
    5848:	100b883a 	mov	r5,r2
    584c:	200d883a 	mov	r6,r4
    5850:	39ffffc4 	addi	r7,r7,-1
    5854:	413ff82e 	bgeu	r8,r4,5838 <__unpack_d+0x70>
    5858:	69c00215 	stw	r7,8(r13)
    585c:	69800415 	stw	r6,16(r13)
    5860:	69400315 	stw	r5,12(r13)
    5864:	f800283a 	ret
    5868:	00800084 	movi	r2,2
    586c:	28800015 	stw	r2,0(r5)
    5870:	f800283a 	ret
    5874:	0081ffc4 	movi	r2,2047
    5878:	40800f26 	beq	r8,r2,58b8 <__unpack_d+0xf0>
    587c:	480cd63a 	srli	r6,r9,24
    5880:	5006923a 	slli	r3,r10,8
    5884:	4804923a 	slli	r2,r9,8
    5888:	0009883a 	mov	r4,zero
    588c:	30c6b03a 	or	r3,r6,r3
    5890:	01440034 	movhi	r5,4096
    5894:	110cb03a 	or	r6,r2,r4
    5898:	423f0044 	addi	r8,r8,-1023
    589c:	194eb03a 	or	r7,r3,r5
    58a0:	008000c4 	movi	r2,3
    58a4:	69c00415 	stw	r7,16(r13)
    58a8:	6a000215 	stw	r8,8(r13)
    58ac:	68800015 	stw	r2,0(r13)
    58b0:	69800315 	stw	r6,12(r13)
    58b4:	f800283a 	ret
    58b8:	4a84b03a 	or	r2,r9,r10
    58bc:	1000031e 	bne	r2,zero,58cc <__unpack_d+0x104>
    58c0:	00800104 	movi	r2,4
    58c4:	28800015 	stw	r2,0(r5)
    58c8:	f800283a 	ret
    58cc:	0009883a 	mov	r4,zero
    58d0:	01400234 	movhi	r5,8
    58d4:	4904703a 	and	r2,r9,r4
    58d8:	5146703a 	and	r3,r10,r5
    58dc:	10c4b03a 	or	r2,r2,r3
    58e0:	10000526 	beq	r2,zero,58f8 <__unpack_d+0x130>
    58e4:	00800044 	movi	r2,1
    58e8:	68800015 	stw	r2,0(r13)
    58ec:	6b000415 	stw	r12,16(r13)
    58f0:	6ac00315 	stw	r11,12(r13)
    58f4:	f800283a 	ret
    58f8:	68000015 	stw	zero,0(r13)
    58fc:	003ffb06 	br	58ec <__unpack_d+0x124>

00005900 <__fpcmp_parts_d>:
    5900:	21800017 	ldw	r6,0(r4)
    5904:	00c00044 	movi	r3,1
    5908:	19800a2e 	bgeu	r3,r6,5934 <__fpcmp_parts_d+0x34>
    590c:	28800017 	ldw	r2,0(r5)
    5910:	1880082e 	bgeu	r3,r2,5934 <__fpcmp_parts_d+0x34>
    5914:	00c00104 	movi	r3,4
    5918:	30c02626 	beq	r6,r3,59b4 <__fpcmp_parts_d+0xb4>
    591c:	10c02226 	beq	r2,r3,59a8 <__fpcmp_parts_d+0xa8>
    5920:	00c00084 	movi	r3,2
    5924:	30c00526 	beq	r6,r3,593c <__fpcmp_parts_d+0x3c>
    5928:	10c0071e 	bne	r2,r3,5948 <__fpcmp_parts_d+0x48>
    592c:	20800117 	ldw	r2,4(r4)
    5930:	1000091e 	bne	r2,zero,5958 <__fpcmp_parts_d+0x58>
    5934:	00800044 	movi	r2,1
    5938:	f800283a 	ret
    593c:	10c01a1e 	bne	r2,r3,59a8 <__fpcmp_parts_d+0xa8>
    5940:	0005883a 	mov	r2,zero
    5944:	f800283a 	ret
    5948:	22000117 	ldw	r8,4(r4)
    594c:	28800117 	ldw	r2,4(r5)
    5950:	40800326 	beq	r8,r2,5960 <__fpcmp_parts_d+0x60>
    5954:	403ff726 	beq	r8,zero,5934 <__fpcmp_parts_d+0x34>
    5958:	00bfffc4 	movi	r2,-1
    595c:	f800283a 	ret
    5960:	20c00217 	ldw	r3,8(r4)
    5964:	28800217 	ldw	r2,8(r5)
    5968:	10fffa16 	blt	r2,r3,5954 <__fpcmp_parts_d+0x54>
    596c:	18800916 	blt	r3,r2,5994 <__fpcmp_parts_d+0x94>
    5970:	21c00417 	ldw	r7,16(r4)
    5974:	28c00417 	ldw	r3,16(r5)
    5978:	21800317 	ldw	r6,12(r4)
    597c:	28800317 	ldw	r2,12(r5)
    5980:	19fff436 	bltu	r3,r7,5954 <__fpcmp_parts_d+0x54>
    5984:	38c00526 	beq	r7,r3,599c <__fpcmp_parts_d+0x9c>
    5988:	38c00236 	bltu	r7,r3,5994 <__fpcmp_parts_d+0x94>
    598c:	19ffec1e 	bne	r3,r7,5940 <__fpcmp_parts_d+0x40>
    5990:	30bfeb2e 	bgeu	r6,r2,5940 <__fpcmp_parts_d+0x40>
    5994:	403fe71e 	bne	r8,zero,5934 <__fpcmp_parts_d+0x34>
    5998:	003fef06 	br	5958 <__fpcmp_parts_d+0x58>
    599c:	11bffa2e 	bgeu	r2,r6,5988 <__fpcmp_parts_d+0x88>
    59a0:	403fe426 	beq	r8,zero,5934 <__fpcmp_parts_d+0x34>
    59a4:	003fec06 	br	5958 <__fpcmp_parts_d+0x58>
    59a8:	28800117 	ldw	r2,4(r5)
    59ac:	103fe11e 	bne	r2,zero,5934 <__fpcmp_parts_d+0x34>
    59b0:	003fe906 	br	5958 <__fpcmp_parts_d+0x58>
    59b4:	11bfdd1e 	bne	r2,r6,592c <__fpcmp_parts_d+0x2c>
    59b8:	28c00117 	ldw	r3,4(r5)
    59bc:	20800117 	ldw	r2,4(r4)
    59c0:	1885c83a 	sub	r2,r3,r2
    59c4:	f800283a 	ret

000059c8 <__mulsi3>:
    59c8:	20000a26 	beq	r4,zero,59f4 <__mulsi3+0x2c>
    59cc:	0007883a 	mov	r3,zero
    59d0:	2080004c 	andi	r2,r4,1
    59d4:	1005003a 	cmpeq	r2,r2,zero
    59d8:	2008d07a 	srli	r4,r4,1
    59dc:	1000011e 	bne	r2,zero,59e4 <__mulsi3+0x1c>
    59e0:	1947883a 	add	r3,r3,r5
    59e4:	294b883a 	add	r5,r5,r5
    59e8:	203ff91e 	bne	r4,zero,59d0 <__mulsi3+0x8>
    59ec:	1805883a 	mov	r2,r3
    59f0:	f800283a 	ret
    59f4:	0007883a 	mov	r3,zero
    59f8:	1805883a 	mov	r2,r3
    59fc:	f800283a 	ret

00005a00 <sprintf>:
    5a00:	defff504 	addi	sp,sp,-44
    5a04:	2015883a 	mov	r10,r4
    5a08:	dfc00815 	stw	ra,32(sp)
    5a0c:	d9800915 	stw	r6,36(sp)
    5a10:	d9c00a15 	stw	r7,40(sp)
    5a14:	d8800904 	addi	r2,sp,36
    5a18:	d8800015 	stw	r2,0(sp)
    5a1c:	00800034 	movhi	r2,0
    5a20:	1099f704 	addi	r2,r2,26588
    5a24:	11000017 	ldw	r4,0(r2)
    5a28:	d9c00017 	ldw	r7,0(sp)
    5a2c:	00808204 	movi	r2,520
    5a30:	02200034 	movhi	r8,32768
    5a34:	423fffc4 	addi	r8,r8,-1
    5a38:	280d883a 	mov	r6,r5
    5a3c:	d880010d 	sth	r2,4(sp)
    5a40:	00c00034 	movhi	r3,0
    5a44:	18d88d04 	addi	r3,r3,25140
    5a48:	d9400104 	addi	r5,sp,4
    5a4c:	00bfffc4 	movi	r2,-1
    5a50:	d8c00215 	stw	r3,8(sp)
    5a54:	da800315 	stw	r10,12(sp)
    5a58:	da000415 	stw	r8,16(sp)
    5a5c:	d880018d 	sth	r2,6(sp)
    5a60:	da800515 	stw	r10,20(sp)
    5a64:	da000615 	stw	r8,24(sp)
    5a68:	d8000715 	stw	zero,28(sp)
    5a6c:	0005b740 	call	5b74 <___vfprintf_internal_r>
    5a70:	d8c00517 	ldw	r3,20(sp)
    5a74:	18000005 	stb	zero,0(r3)
    5a78:	dfc00817 	ldw	ra,32(sp)
    5a7c:	dec00b04 	addi	sp,sp,44
    5a80:	f800283a 	ret

00005a84 <_sprintf_r>:
    5a84:	defff604 	addi	sp,sp,-40
    5a88:	2815883a 	mov	r10,r5
    5a8c:	dfc00815 	stw	ra,32(sp)
    5a90:	d9c00915 	stw	r7,36(sp)
    5a94:	d8800904 	addi	r2,sp,36
    5a98:	d8800015 	stw	r2,0(sp)
    5a9c:	100f883a 	mov	r7,r2
    5aa0:	00808204 	movi	r2,520
    5aa4:	02200034 	movhi	r8,32768
    5aa8:	423fffc4 	addi	r8,r8,-1
    5aac:	d880010d 	sth	r2,4(sp)
    5ab0:	00c00034 	movhi	r3,0
    5ab4:	18d88d04 	addi	r3,r3,25140
    5ab8:	d9400104 	addi	r5,sp,4
    5abc:	00bfffc4 	movi	r2,-1
    5ac0:	d8c00215 	stw	r3,8(sp)
    5ac4:	da800315 	stw	r10,12(sp)
    5ac8:	da000415 	stw	r8,16(sp)
    5acc:	d880018d 	sth	r2,6(sp)
    5ad0:	da800515 	stw	r10,20(sp)
    5ad4:	da000615 	stw	r8,24(sp)
    5ad8:	d8000715 	stw	zero,28(sp)
    5adc:	0005b740 	call	5b74 <___vfprintf_internal_r>
    5ae0:	d8c00517 	ldw	r3,20(sp)
    5ae4:	18000005 	stb	zero,0(r3)
    5ae8:	dfc00817 	ldw	ra,32(sp)
    5aec:	dec00a04 	addi	sp,sp,40
    5af0:	f800283a 	ret

00005af4 <print_repeat>:
    5af4:	defffb04 	addi	sp,sp,-20
    5af8:	dc800315 	stw	r18,12(sp)
    5afc:	dc400215 	stw	r17,8(sp)
    5b00:	dc000115 	stw	r16,4(sp)
    5b04:	dfc00415 	stw	ra,16(sp)
    5b08:	2025883a 	mov	r18,r4
    5b0c:	2823883a 	mov	r17,r5
    5b10:	3821883a 	mov	r16,r7
    5b14:	d9800005 	stb	r6,0(sp)
    5b18:	9009883a 	mov	r4,r18
    5b1c:	880b883a 	mov	r5,r17
    5b20:	d80d883a 	mov	r6,sp
    5b24:	01c00044 	movi	r7,1
    5b28:	04000b0e 	bge	zero,r16,5b58 <print_repeat+0x64>
    5b2c:	88c00117 	ldw	r3,4(r17)
    5b30:	843fffc4 	addi	r16,r16,-1
    5b34:	183ee83a 	callr	r3
    5b38:	103ff726 	beq	r2,zero,5b18 <print_repeat+0x24>
    5b3c:	00bfffc4 	movi	r2,-1
    5b40:	dfc00417 	ldw	ra,16(sp)
    5b44:	dc800317 	ldw	r18,12(sp)
    5b48:	dc400217 	ldw	r17,8(sp)
    5b4c:	dc000117 	ldw	r16,4(sp)
    5b50:	dec00504 	addi	sp,sp,20
    5b54:	f800283a 	ret
    5b58:	0005883a 	mov	r2,zero
    5b5c:	dfc00417 	ldw	ra,16(sp)
    5b60:	dc800317 	ldw	r18,12(sp)
    5b64:	dc400217 	ldw	r17,8(sp)
    5b68:	dc000117 	ldw	r16,4(sp)
    5b6c:	dec00504 	addi	sp,sp,20
    5b70:	f800283a 	ret

00005b74 <___vfprintf_internal_r>:
    5b74:	deffe304 	addi	sp,sp,-116
    5b78:	df001b15 	stw	fp,108(sp)
    5b7c:	ddc01a15 	stw	r23,104(sp)
    5b80:	dd001715 	stw	r20,92(sp)
    5b84:	dc801515 	stw	r18,84(sp)
    5b88:	dc001315 	stw	r16,76(sp)
    5b8c:	dfc01c15 	stw	ra,112(sp)
    5b90:	dd801915 	stw	r22,100(sp)
    5b94:	dd401815 	stw	r21,96(sp)
    5b98:	dcc01615 	stw	r19,88(sp)
    5b9c:	dc401415 	stw	r17,80(sp)
    5ba0:	d9001015 	stw	r4,64(sp)
    5ba4:	2829883a 	mov	r20,r5
    5ba8:	d9c01115 	stw	r7,68(sp)
    5bac:	3025883a 	mov	r18,r6
    5bb0:	0021883a 	mov	r16,zero
    5bb4:	d8000f15 	stw	zero,60(sp)
    5bb8:	d8000e15 	stw	zero,56(sp)
    5bbc:	0039883a 	mov	fp,zero
    5bc0:	d8000915 	stw	zero,36(sp)
    5bc4:	d8000d15 	stw	zero,52(sp)
    5bc8:	d8000c15 	stw	zero,48(sp)
    5bcc:	d8000b15 	stw	zero,44(sp)
    5bd0:	002f883a 	mov	r23,zero
    5bd4:	91400003 	ldbu	r5,0(r18)
    5bd8:	01c00044 	movi	r7,1
    5bdc:	94800044 	addi	r18,r18,1
    5be0:	29003fcc 	andi	r4,r5,255
    5be4:	2100201c 	xori	r4,r4,128
    5be8:	213fe004 	addi	r4,r4,-128
    5bec:	20001526 	beq	r4,zero,5c44 <___vfprintf_internal_r+0xd0>
    5bf0:	81c03526 	beq	r16,r7,5cc8 <___vfprintf_internal_r+0x154>
    5bf4:	3c002016 	blt	r7,r16,5c78 <___vfprintf_internal_r+0x104>
    5bf8:	803ff61e 	bne	r16,zero,5bd4 <___vfprintf_internal_r+0x60>
    5bfc:	00800944 	movi	r2,37
    5c00:	2081501e 	bne	r4,r2,6144 <___vfprintf_internal_r+0x5d0>
    5c04:	073fffc4 	movi	fp,-1
    5c08:	00800284 	movi	r2,10
    5c0c:	d9c00c15 	stw	r7,48(sp)
    5c10:	d8000f15 	stw	zero,60(sp)
    5c14:	d8000e15 	stw	zero,56(sp)
    5c18:	df000915 	stw	fp,36(sp)
    5c1c:	d8800d15 	stw	r2,52(sp)
    5c20:	d8000b15 	stw	zero,44(sp)
    5c24:	91400003 	ldbu	r5,0(r18)
    5c28:	3821883a 	mov	r16,r7
    5c2c:	94800044 	addi	r18,r18,1
    5c30:	29003fcc 	andi	r4,r5,255
    5c34:	2100201c 	xori	r4,r4,128
    5c38:	213fe004 	addi	r4,r4,-128
    5c3c:	01c00044 	movi	r7,1
    5c40:	203feb1e 	bne	r4,zero,5bf0 <___vfprintf_internal_r+0x7c>
    5c44:	b805883a 	mov	r2,r23
    5c48:	dfc01c17 	ldw	ra,112(sp)
    5c4c:	df001b17 	ldw	fp,108(sp)
    5c50:	ddc01a17 	ldw	r23,104(sp)
    5c54:	dd801917 	ldw	r22,100(sp)
    5c58:	dd401817 	ldw	r21,96(sp)
    5c5c:	dd001717 	ldw	r20,92(sp)
    5c60:	dcc01617 	ldw	r19,88(sp)
    5c64:	dc801517 	ldw	r18,84(sp)
    5c68:	dc401417 	ldw	r17,80(sp)
    5c6c:	dc001317 	ldw	r16,76(sp)
    5c70:	dec01d04 	addi	sp,sp,116
    5c74:	f800283a 	ret
    5c78:	00800084 	movi	r2,2
    5c7c:	80801726 	beq	r16,r2,5cdc <___vfprintf_internal_r+0x168>
    5c80:	008000c4 	movi	r2,3
    5c84:	80bfd31e 	bne	r16,r2,5bd4 <___vfprintf_internal_r+0x60>
    5c88:	2c7ff404 	addi	r17,r5,-48
    5c8c:	88c03fcc 	andi	r3,r17,255
    5c90:	00800244 	movi	r2,9
    5c94:	10c02136 	bltu	r2,r3,5d1c <___vfprintf_internal_r+0x1a8>
    5c98:	d8c00917 	ldw	r3,36(sp)
    5c9c:	18012716 	blt	r3,zero,613c <___vfprintf_internal_r+0x5c8>
    5ca0:	d9000917 	ldw	r4,36(sp)
    5ca4:	01400284 	movi	r5,10
    5ca8:	00059c80 	call	59c8 <__mulsi3>
    5cac:	1007883a 	mov	r3,r2
    5cb0:	88803fcc 	andi	r2,r17,255
    5cb4:	1080201c 	xori	r2,r2,128
    5cb8:	10bfe004 	addi	r2,r2,-128
    5cbc:	1887883a 	add	r3,r3,r2
    5cc0:	d8c00915 	stw	r3,36(sp)
    5cc4:	003fc306 	br	5bd4 <___vfprintf_internal_r+0x60>
    5cc8:	00800c04 	movi	r2,48
    5ccc:	2080b326 	beq	r4,r2,5f9c <___vfprintf_internal_r+0x428>
    5cd0:	00800944 	movi	r2,37
    5cd4:	20812726 	beq	r4,r2,6174 <___vfprintf_internal_r+0x600>
    5cd8:	04000084 	movi	r16,2
    5cdc:	2c7ff404 	addi	r17,r5,-48
    5ce0:	88c03fcc 	andi	r3,r17,255
    5ce4:	00800244 	movi	r2,9
    5ce8:	10c00a36 	bltu	r2,r3,5d14 <___vfprintf_internal_r+0x1a0>
    5cec:	e000b416 	blt	fp,zero,5fc0 <___vfprintf_internal_r+0x44c>
    5cf0:	e009883a 	mov	r4,fp
    5cf4:	01400284 	movi	r5,10
    5cf8:	00059c80 	call	59c8 <__mulsi3>
    5cfc:	1007883a 	mov	r3,r2
    5d00:	88803fcc 	andi	r2,r17,255
    5d04:	1080201c 	xori	r2,r2,128
    5d08:	10bfe004 	addi	r2,r2,-128
    5d0c:	18b9883a 	add	fp,r3,r2
    5d10:	003fb006 	br	5bd4 <___vfprintf_internal_r+0x60>
    5d14:	00800b84 	movi	r2,46
    5d18:	2080a326 	beq	r4,r2,5fa8 <___vfprintf_internal_r+0x434>
    5d1c:	00801b04 	movi	r2,108
    5d20:	2080a326 	beq	r4,r2,5fb0 <___vfprintf_internal_r+0x43c>
    5d24:	d8c00917 	ldw	r3,36(sp)
    5d28:	1800a716 	blt	r3,zero,5fc8 <___vfprintf_internal_r+0x454>
    5d2c:	d8000f15 	stw	zero,60(sp)
    5d30:	28bfea04 	addi	r2,r5,-88
    5d34:	10803fcc 	andi	r2,r2,255
    5d38:	00c00804 	movi	r3,32
    5d3c:	18802836 	bltu	r3,r2,5de0 <___vfprintf_internal_r+0x26c>
    5d40:	1085883a 	add	r2,r2,r2
    5d44:	1085883a 	add	r2,r2,r2
    5d48:	00c00034 	movhi	r3,0
    5d4c:	18d75704 	addi	r3,r3,23900
    5d50:	10c5883a 	add	r2,r2,r3
    5d54:	11000017 	ldw	r4,0(r2)
    5d58:	2000683a 	jmp	r4
    5d5c:	00005de8 	cmpgeui	zero,zero,375
    5d60:	00005de0 	cmpeqi	zero,zero,375
    5d64:	00005de0 	cmpeqi	zero,zero,375
    5d68:	00005de0 	cmpeqi	zero,zero,375
    5d6c:	00005de0 	cmpeqi	zero,zero,375
    5d70:	00005de0 	cmpeqi	zero,zero,375
    5d74:	00005de0 	cmpeqi	zero,zero,375
    5d78:	00005de0 	cmpeqi	zero,zero,375
    5d7c:	00005de0 	cmpeqi	zero,zero,375
    5d80:	00005de0 	cmpeqi	zero,zero,375
    5d84:	00005de0 	cmpeqi	zero,zero,375
    5d88:	00006014 	movui	zero,384
    5d8c:	00005dfc 	xorhi	zero,zero,375
    5d90:	00005de0 	cmpeqi	zero,zero,375
    5d94:	00005de0 	cmpeqi	zero,zero,375
    5d98:	00005de0 	cmpeqi	zero,zero,375
    5d9c:	00005de0 	cmpeqi	zero,zero,375
    5da0:	00005dfc 	xorhi	zero,zero,375
    5da4:	00005de0 	cmpeqi	zero,zero,375
    5da8:	00005de0 	cmpeqi	zero,zero,375
    5dac:	00005de0 	cmpeqi	zero,zero,375
    5db0:	00005de0 	cmpeqi	zero,zero,375
    5db4:	00005de0 	cmpeqi	zero,zero,375
    5db8:	0000607c 	xorhi	zero,zero,385
    5dbc:	00005de0 	cmpeqi	zero,zero,375
    5dc0:	00005de0 	cmpeqi	zero,zero,375
    5dc4:	00005de0 	cmpeqi	zero,zero,375
    5dc8:	0000608c 	andi	zero,zero,386
    5dcc:	00005de0 	cmpeqi	zero,zero,375
    5dd0:	00005f60 	cmpeqi	zero,zero,381
    5dd4:	00005de0 	cmpeqi	zero,zero,375
    5dd8:	00005de0 	cmpeqi	zero,zero,375
    5ddc:	00005f58 	cmpnei	zero,zero,381
    5de0:	0021883a 	mov	r16,zero
    5de4:	003f7b06 	br	5bd4 <___vfprintf_internal_r+0x60>
    5de8:	00c00404 	movi	r3,16
    5dec:	00800044 	movi	r2,1
    5df0:	d8c00d15 	stw	r3,52(sp)
    5df4:	d8000c15 	stw	zero,48(sp)
    5df8:	d8800b15 	stw	r2,44(sp)
    5dfc:	d8c00e17 	ldw	r3,56(sp)
    5e00:	1805003a 	cmpeq	r2,r3,zero
    5e04:	10005a1e 	bne	r2,zero,5f70 <___vfprintf_internal_r+0x3fc>
    5e08:	d8800c17 	ldw	r2,48(sp)
    5e0c:	1000781e 	bne	r2,zero,5ff0 <___vfprintf_internal_r+0x47c>
    5e10:	d8801117 	ldw	r2,68(sp)
    5e14:	d8000a15 	stw	zero,40(sp)
    5e18:	14400017 	ldw	r17,0(r2)
    5e1c:	11c00104 	addi	r7,r2,4
    5e20:	d9c01115 	stw	r7,68(sp)
    5e24:	88005a26 	beq	r17,zero,5f90 <___vfprintf_internal_r+0x41c>
    5e28:	d8c00b17 	ldw	r3,44(sp)
    5e2c:	dcc00104 	addi	r19,sp,4
    5e30:	05800244 	movi	r22,9
    5e34:	182b003a 	cmpeq	r21,r3,zero
    5e38:	dcc01215 	stw	r19,72(sp)
    5e3c:	00000506 	br	5e54 <___vfprintf_internal_r+0x2e0>
    5e40:	21000c04 	addi	r4,r4,48
    5e44:	99000005 	stb	r4,0(r19)
    5e48:	9cc00044 	addi	r19,r19,1
    5e4c:	80000f26 	beq	r16,zero,5e8c <___vfprintf_internal_r+0x318>
    5e50:	8023883a 	mov	r17,r16
    5e54:	d9400d17 	ldw	r5,52(sp)
    5e58:	8809883a 	mov	r4,r17
    5e5c:	00064a80 	call	64a8 <__udivsi3>
    5e60:	d9000d17 	ldw	r4,52(sp)
    5e64:	100b883a 	mov	r5,r2
    5e68:	1021883a 	mov	r16,r2
    5e6c:	00059c80 	call	59c8 <__mulsi3>
    5e70:	8889c83a 	sub	r4,r17,r2
    5e74:	b13ff20e 	bge	r22,r4,5e40 <___vfprintf_internal_r+0x2cc>
    5e78:	a8009f1e 	bne	r21,zero,60f8 <___vfprintf_internal_r+0x584>
    5e7c:	21000dc4 	addi	r4,r4,55
    5e80:	99000005 	stb	r4,0(r19)
    5e84:	9cc00044 	addi	r19,r19,1
    5e88:	803ff11e 	bne	r16,zero,5e50 <___vfprintf_internal_r+0x2dc>
    5e8c:	d8801217 	ldw	r2,72(sp)
    5e90:	98a3c83a 	sub	r17,r19,r2
    5e94:	d8c00917 	ldw	r3,36(sp)
    5e98:	1c4bc83a 	sub	r5,r3,r17
    5e9c:	0140130e 	bge	zero,r5,5eec <___vfprintf_internal_r+0x378>
    5ea0:	d8c00104 	addi	r3,sp,4
    5ea4:	18800804 	addi	r2,r3,32
    5ea8:	9880102e 	bgeu	r19,r2,5eec <___vfprintf_internal_r+0x378>
    5eac:	00800c04 	movi	r2,48
    5eb0:	28ffffc4 	addi	r3,r5,-1
    5eb4:	98800005 	stb	r2,0(r19)
    5eb8:	99000044 	addi	r4,r19,1
    5ebc:	00c0080e 	bge	zero,r3,5ee0 <___vfprintf_internal_r+0x36c>
    5ec0:	d8c00104 	addi	r3,sp,4
    5ec4:	18800804 	addi	r2,r3,32
    5ec8:	2080052e 	bgeu	r4,r2,5ee0 <___vfprintf_internal_r+0x36c>
    5ecc:	00800c04 	movi	r2,48
    5ed0:	20800005 	stb	r2,0(r4)
    5ed4:	21000044 	addi	r4,r4,1
    5ed8:	9945883a 	add	r2,r19,r5
    5edc:	20bff81e 	bne	r4,r2,5ec0 <___vfprintf_internal_r+0x34c>
    5ee0:	d8801217 	ldw	r2,72(sp)
    5ee4:	2027883a 	mov	r19,r4
    5ee8:	20a3c83a 	sub	r17,r4,r2
    5eec:	d8c00a17 	ldw	r3,40(sp)
    5ef0:	1c45883a 	add	r2,r3,r17
    5ef4:	e0a1c83a 	sub	r16,fp,r2
    5ef8:	d8800f17 	ldw	r2,60(sp)
    5efc:	10008026 	beq	r2,zero,6100 <___vfprintf_internal_r+0x58c>
    5f00:	1805003a 	cmpeq	r2,r3,zero
    5f04:	1000ae26 	beq	r2,zero,61c0 <___vfprintf_internal_r+0x64c>
    5f08:	0400a516 	blt	zero,r16,61a0 <___vfprintf_internal_r+0x62c>
    5f0c:	b805883a 	mov	r2,r23
    5f10:	0440950e 	bge	zero,r17,6168 <___vfprintf_internal_r+0x5f4>
    5f14:	102f883a 	mov	r23,r2
    5f18:	1461883a 	add	r16,r2,r17
    5f1c:	00000206 	br	5f28 <___vfprintf_internal_r+0x3b4>
    5f20:	bdc00044 	addi	r23,r23,1
    5f24:	85ffae26 	beq	r16,r23,5de0 <___vfprintf_internal_r+0x26c>
    5f28:	9cffffc4 	addi	r19,r19,-1
    5f2c:	98800003 	ldbu	r2,0(r19)
    5f30:	a0c00117 	ldw	r3,4(r20)
    5f34:	d9001017 	ldw	r4,64(sp)
    5f38:	d8800005 	stb	r2,0(sp)
    5f3c:	a00b883a 	mov	r5,r20
    5f40:	d80d883a 	mov	r6,sp
    5f44:	01c00044 	movi	r7,1
    5f48:	183ee83a 	callr	r3
    5f4c:	103ff426 	beq	r2,zero,5f20 <___vfprintf_internal_r+0x3ac>
    5f50:	05ffffc4 	movi	r23,-1
    5f54:	003f3b06 	br	5c44 <___vfprintf_internal_r+0xd0>
    5f58:	00c00404 	movi	r3,16
    5f5c:	d8c00d15 	stw	r3,52(sp)
    5f60:	d8000c15 	stw	zero,48(sp)
    5f64:	d8c00e17 	ldw	r3,56(sp)
    5f68:	1805003a 	cmpeq	r2,r3,zero
    5f6c:	103fa626 	beq	r2,zero,5e08 <___vfprintf_internal_r+0x294>
    5f70:	d8c00c17 	ldw	r3,48(sp)
    5f74:	1800171e 	bne	r3,zero,5fd4 <___vfprintf_internal_r+0x460>
    5f78:	d8c01117 	ldw	r3,68(sp)
    5f7c:	d8000a15 	stw	zero,40(sp)
    5f80:	1c400017 	ldw	r17,0(r3)
    5f84:	19c00104 	addi	r7,r3,4
    5f88:	d9c01115 	stw	r7,68(sp)
    5f8c:	883fa61e 	bne	r17,zero,5e28 <___vfprintf_internal_r+0x2b4>
    5f90:	dcc00104 	addi	r19,sp,4
    5f94:	dcc01215 	stw	r19,72(sp)
    5f98:	003fbe06 	br	5e94 <___vfprintf_internal_r+0x320>
    5f9c:	04000084 	movi	r16,2
    5fa0:	d9c00f15 	stw	r7,60(sp)
    5fa4:	003f0b06 	br	5bd4 <___vfprintf_internal_r+0x60>
    5fa8:	040000c4 	movi	r16,3
    5fac:	003f0906 	br	5bd4 <___vfprintf_internal_r+0x60>
    5fb0:	00800044 	movi	r2,1
    5fb4:	040000c4 	movi	r16,3
    5fb8:	d8800e15 	stw	r2,56(sp)
    5fbc:	003f0506 	br	5bd4 <___vfprintf_internal_r+0x60>
    5fc0:	0007883a 	mov	r3,zero
    5fc4:	003f4e06 	br	5d00 <___vfprintf_internal_r+0x18c>
    5fc8:	00800044 	movi	r2,1
    5fcc:	d8800915 	stw	r2,36(sp)
    5fd0:	003f5706 	br	5d30 <___vfprintf_internal_r+0x1bc>
    5fd4:	d8801117 	ldw	r2,68(sp)
    5fd8:	14400017 	ldw	r17,0(r2)
    5fdc:	10800104 	addi	r2,r2,4
    5fe0:	d8801115 	stw	r2,68(sp)
    5fe4:	88000716 	blt	r17,zero,6004 <___vfprintf_internal_r+0x490>
    5fe8:	d8000a15 	stw	zero,40(sp)
    5fec:	003f8d06 	br	5e24 <___vfprintf_internal_r+0x2b0>
    5ff0:	d8c01117 	ldw	r3,68(sp)
    5ff4:	1c400017 	ldw	r17,0(r3)
    5ff8:	18c00104 	addi	r3,r3,4
    5ffc:	d8c01115 	stw	r3,68(sp)
    6000:	883ff90e 	bge	r17,zero,5fe8 <___vfprintf_internal_r+0x474>
    6004:	00800044 	movi	r2,1
    6008:	0463c83a 	sub	r17,zero,r17
    600c:	d8800a15 	stw	r2,40(sp)
    6010:	003f8406 	br	5e24 <___vfprintf_internal_r+0x2b0>
    6014:	04000044 	movi	r16,1
    6018:	8700080e 	bge	r16,fp,603c <___vfprintf_internal_r+0x4c8>
    601c:	d9001017 	ldw	r4,64(sp)
    6020:	a00b883a 	mov	r5,r20
    6024:	01800804 	movi	r6,32
    6028:	e1ffffc4 	addi	r7,fp,-1
    602c:	0005af40 	call	5af4 <print_repeat>
    6030:	103fc71e 	bne	r2,zero,5f50 <___vfprintf_internal_r+0x3dc>
    6034:	e5c5883a 	add	r2,fp,r23
    6038:	15ffffc4 	addi	r23,r2,-1
    603c:	d8c01117 	ldw	r3,68(sp)
    6040:	d9001017 	ldw	r4,64(sp)
    6044:	800f883a 	mov	r7,r16
    6048:	18800017 	ldw	r2,0(r3)
    604c:	a0c00117 	ldw	r3,4(r20)
    6050:	a00b883a 	mov	r5,r20
    6054:	d8800005 	stb	r2,0(sp)
    6058:	d80d883a 	mov	r6,sp
    605c:	183ee83a 	callr	r3
    6060:	103fbb1e 	bne	r2,zero,5f50 <___vfprintf_internal_r+0x3dc>
    6064:	d8801117 	ldw	r2,68(sp)
    6068:	bdc00044 	addi	r23,r23,1
    606c:	0021883a 	mov	r16,zero
    6070:	10800104 	addi	r2,r2,4
    6074:	d8801115 	stw	r2,68(sp)
    6078:	003ed606 	br	5bd4 <___vfprintf_internal_r+0x60>
    607c:	00800204 	movi	r2,8
    6080:	d8800d15 	stw	r2,52(sp)
    6084:	d8000c15 	stw	zero,48(sp)
    6088:	003fb606 	br	5f64 <___vfprintf_internal_r+0x3f0>
    608c:	d8c01117 	ldw	r3,68(sp)
    6090:	1cc00017 	ldw	r19,0(r3)
    6094:	9809883a 	mov	r4,r19
    6098:	000634c0 	call	634c <strlen>
    609c:	e0a1c83a 	sub	r16,fp,r2
    60a0:	1023883a 	mov	r17,r2
    60a4:	0400070e 	bge	zero,r16,60c4 <___vfprintf_internal_r+0x550>
    60a8:	d9001017 	ldw	r4,64(sp)
    60ac:	a00b883a 	mov	r5,r20
    60b0:	01800804 	movi	r6,32
    60b4:	800f883a 	mov	r7,r16
    60b8:	0005af40 	call	5af4 <print_repeat>
    60bc:	103fa41e 	bne	r2,zero,5f50 <___vfprintf_internal_r+0x3dc>
    60c0:	bc2f883a 	add	r23,r23,r16
    60c4:	a0c00117 	ldw	r3,4(r20)
    60c8:	d9001017 	ldw	r4,64(sp)
    60cc:	980d883a 	mov	r6,r19
    60d0:	a00b883a 	mov	r5,r20
    60d4:	880f883a 	mov	r7,r17
    60d8:	183ee83a 	callr	r3
    60dc:	103f9c1e 	bne	r2,zero,5f50 <___vfprintf_internal_r+0x3dc>
    60e0:	d8801117 	ldw	r2,68(sp)
    60e4:	bc6f883a 	add	r23,r23,r17
    60e8:	0021883a 	mov	r16,zero
    60ec:	10800104 	addi	r2,r2,4
    60f0:	d8801115 	stw	r2,68(sp)
    60f4:	003eb706 	br	5bd4 <___vfprintf_internal_r+0x60>
    60f8:	210015c4 	addi	r4,r4,87
    60fc:	003f5106 	br	5e44 <___vfprintf_internal_r+0x2d0>
    6100:	04003b16 	blt	zero,r16,61f0 <___vfprintf_internal_r+0x67c>
    6104:	d8c00a17 	ldw	r3,40(sp)
    6108:	1805003a 	cmpeq	r2,r3,zero
    610c:	103f7f1e 	bne	r2,zero,5f0c <___vfprintf_internal_r+0x398>
    6110:	a0c00117 	ldw	r3,4(r20)
    6114:	d9001017 	ldw	r4,64(sp)
    6118:	00800b44 	movi	r2,45
    611c:	d8800005 	stb	r2,0(sp)
    6120:	a00b883a 	mov	r5,r20
    6124:	d80d883a 	mov	r6,sp
    6128:	01c00044 	movi	r7,1
    612c:	183ee83a 	callr	r3
    6130:	103f871e 	bne	r2,zero,5f50 <___vfprintf_internal_r+0x3dc>
    6134:	b8800044 	addi	r2,r23,1
    6138:	003f7506 	br	5f10 <___vfprintf_internal_r+0x39c>
    613c:	0007883a 	mov	r3,zero
    6140:	003edb06 	br	5cb0 <___vfprintf_internal_r+0x13c>
    6144:	a0c00117 	ldw	r3,4(r20)
    6148:	d9001017 	ldw	r4,64(sp)
    614c:	d9400005 	stb	r5,0(sp)
    6150:	d80d883a 	mov	r6,sp
    6154:	a00b883a 	mov	r5,r20
    6158:	183ee83a 	callr	r3
    615c:	103f7c1e 	bne	r2,zero,5f50 <___vfprintf_internal_r+0x3dc>
    6160:	bdc00044 	addi	r23,r23,1
    6164:	003e9b06 	br	5bd4 <___vfprintf_internal_r+0x60>
    6168:	102f883a 	mov	r23,r2
    616c:	0021883a 	mov	r16,zero
    6170:	003e9806 	br	5bd4 <___vfprintf_internal_r+0x60>
    6174:	a0c00117 	ldw	r3,4(r20)
    6178:	d9000005 	stb	r4,0(sp)
    617c:	d9001017 	ldw	r4,64(sp)
    6180:	a00b883a 	mov	r5,r20
    6184:	d80d883a 	mov	r6,sp
    6188:	800f883a 	mov	r7,r16
    618c:	183ee83a 	callr	r3
    6190:	103f6f1e 	bne	r2,zero,5f50 <___vfprintf_internal_r+0x3dc>
    6194:	bc2f883a 	add	r23,r23,r16
    6198:	0021883a 	mov	r16,zero
    619c:	003e8d06 	br	5bd4 <___vfprintf_internal_r+0x60>
    61a0:	d9001017 	ldw	r4,64(sp)
    61a4:	a00b883a 	mov	r5,r20
    61a8:	01800c04 	movi	r6,48
    61ac:	800f883a 	mov	r7,r16
    61b0:	0005af40 	call	5af4 <print_repeat>
    61b4:	103f661e 	bne	r2,zero,5f50 <___vfprintf_internal_r+0x3dc>
    61b8:	bc05883a 	add	r2,r23,r16
    61bc:	003f5406 	br	5f10 <___vfprintf_internal_r+0x39c>
    61c0:	a0c00117 	ldw	r3,4(r20)
    61c4:	d9001017 	ldw	r4,64(sp)
    61c8:	00800b44 	movi	r2,45
    61cc:	d8800005 	stb	r2,0(sp)
    61d0:	a00b883a 	mov	r5,r20
    61d4:	d80d883a 	mov	r6,sp
    61d8:	01c00044 	movi	r7,1
    61dc:	183ee83a 	callr	r3
    61e0:	103f5b1e 	bne	r2,zero,5f50 <___vfprintf_internal_r+0x3dc>
    61e4:	bdc00044 	addi	r23,r23,1
    61e8:	043f480e 	bge	zero,r16,5f0c <___vfprintf_internal_r+0x398>
    61ec:	003fec06 	br	61a0 <___vfprintf_internal_r+0x62c>
    61f0:	d9001017 	ldw	r4,64(sp)
    61f4:	a00b883a 	mov	r5,r20
    61f8:	01800804 	movi	r6,32
    61fc:	800f883a 	mov	r7,r16
    6200:	0005af40 	call	5af4 <print_repeat>
    6204:	103f521e 	bne	r2,zero,5f50 <___vfprintf_internal_r+0x3dc>
    6208:	bc2f883a 	add	r23,r23,r16
    620c:	003fbd06 	br	6104 <___vfprintf_internal_r+0x590>

00006210 <__vfprintf_internal>:
    6210:	00800034 	movhi	r2,0
    6214:	1099f704 	addi	r2,r2,26588
    6218:	2013883a 	mov	r9,r4
    621c:	11000017 	ldw	r4,0(r2)
    6220:	2805883a 	mov	r2,r5
    6224:	300f883a 	mov	r7,r6
    6228:	480b883a 	mov	r5,r9
    622c:	100d883a 	mov	r6,r2
    6230:	0005b741 	jmpi	5b74 <___vfprintf_internal_r>

00006234 <__sfvwrite_small_str>:
    6234:	2900000b 	ldhu	r4,0(r5)
    6238:	defffd04 	addi	sp,sp,-12
    623c:	dc000015 	stw	r16,0(sp)
    6240:	20ffffcc 	andi	r3,r4,65535
    6244:	1880020c 	andi	r2,r3,8
    6248:	2821883a 	mov	r16,r5
    624c:	dfc00215 	stw	ra,8(sp)
    6250:	dc400115 	stw	r17,4(sp)
    6254:	300b883a 	mov	r5,r6
    6258:	10001d26 	beq	r2,zero,62d0 <__sfvwrite_small_str+0x9c>
    625c:	8080008f 	ldh	r2,2(r16)
    6260:	1000190e 	bge	r2,zero,62c8 <__sfvwrite_small_str+0x94>
    6264:	1880800c 	andi	r2,r3,512
    6268:	10001726 	beq	r2,zero,62c8 <__sfvwrite_small_str+0x94>
    626c:	81800517 	ldw	r6,20(r16)
    6270:	31c0020e 	bge	r6,r7,627c <__sfvwrite_small_str+0x48>
    6274:	1880200c 	andi	r2,r3,128
    6278:	1000131e 	bne	r2,zero,62c8 <__sfvwrite_small_str+0x94>
    627c:	3023883a 	mov	r17,r6
    6280:	3980010e 	bge	r7,r6,6288 <__sfvwrite_small_str+0x54>
    6284:	3823883a 	mov	r17,r7
    6288:	81000417 	ldw	r4,16(r16)
    628c:	880d883a 	mov	r6,r17
    6290:	00062ec0 	call	62ec <memmove>
    6294:	80800417 	ldw	r2,16(r16)
    6298:	80c00517 	ldw	r3,20(r16)
    629c:	0009883a 	mov	r4,zero
    62a0:	1445883a 	add	r2,r2,r17
    62a4:	1c47c83a 	sub	r3,r3,r17
    62a8:	80800415 	stw	r2,16(r16)
    62ac:	2005883a 	mov	r2,r4
    62b0:	80c00515 	stw	r3,20(r16)
    62b4:	dfc00217 	ldw	ra,8(sp)
    62b8:	dc400117 	ldw	r17,4(sp)
    62bc:	dc000017 	ldw	r16,0(sp)
    62c0:	dec00304 	addi	sp,sp,12
    62c4:	f800283a 	ret
    62c8:	20801014 	ori	r2,r4,64
    62cc:	8080000d 	sth	r2,0(r16)
    62d0:	013fffc4 	movi	r4,-1
    62d4:	2005883a 	mov	r2,r4
    62d8:	dfc00217 	ldw	ra,8(sp)
    62dc:	dc400117 	ldw	r17,4(sp)
    62e0:	dc000017 	ldw	r16,0(sp)
    62e4:	dec00304 	addi	sp,sp,12
    62e8:	f800283a 	ret

000062ec <memmove>:
    62ec:	2011883a 	mov	r8,r4
    62f0:	2900022e 	bgeu	r5,r4,62fc <memmove+0x10>
    62f4:	2989883a 	add	r4,r5,r6
    62f8:	41000a36 	bltu	r8,r4,6324 <memmove+0x38>
    62fc:	30000726 	beq	r6,zero,631c <memmove+0x30>
    6300:	000f883a 	mov	r7,zero
    6304:	29c5883a 	add	r2,r5,r7
    6308:	11000003 	ldbu	r4,0(r2)
    630c:	3a07883a 	add	r3,r7,r8
    6310:	39c00044 	addi	r7,r7,1
    6314:	19000005 	stb	r4,0(r3)
    6318:	31fffa1e 	bne	r6,r7,6304 <memmove+0x18>
    631c:	4005883a 	mov	r2,r8
    6320:	f800283a 	ret
    6324:	303ffd26 	beq	r6,zero,631c <memmove+0x30>
    6328:	4187883a 	add	r3,r8,r6
    632c:	198dc83a 	sub	r6,r3,r6
    6330:	213fffc4 	addi	r4,r4,-1
    6334:	20800003 	ldbu	r2,0(r4)
    6338:	18ffffc4 	addi	r3,r3,-1
    633c:	18800005 	stb	r2,0(r3)
    6340:	19bffb1e 	bne	r3,r6,6330 <memmove+0x44>
    6344:	4005883a 	mov	r2,r8
    6348:	f800283a 	ret

0000634c <strlen>:
    634c:	20800007 	ldb	r2,0(r4)
    6350:	10000526 	beq	r2,zero,6368 <strlen+0x1c>
    6354:	2007883a 	mov	r3,r4
    6358:	18c00044 	addi	r3,r3,1
    635c:	18800007 	ldb	r2,0(r3)
    6360:	103ffd1e 	bne	r2,zero,6358 <strlen+0xc>
    6364:	1905c83a 	sub	r2,r3,r4
    6368:	f800283a 	ret

0000636c <udivmodsi4>:
    636c:	29001b2e 	bgeu	r5,r4,63dc <udivmodsi4+0x70>
    6370:	28001a16 	blt	r5,zero,63dc <udivmodsi4+0x70>
    6374:	00800044 	movi	r2,1
    6378:	0007883a 	mov	r3,zero
    637c:	01c007c4 	movi	r7,31
    6380:	00000306 	br	6390 <udivmodsi4+0x24>
    6384:	19c01326 	beq	r3,r7,63d4 <udivmodsi4+0x68>
    6388:	18c00044 	addi	r3,r3,1
    638c:	28000416 	blt	r5,zero,63a0 <udivmodsi4+0x34>
    6390:	294b883a 	add	r5,r5,r5
    6394:	1085883a 	add	r2,r2,r2
    6398:	293ffa36 	bltu	r5,r4,6384 <udivmodsi4+0x18>
    639c:	10000d26 	beq	r2,zero,63d4 <udivmodsi4+0x68>
    63a0:	0007883a 	mov	r3,zero
    63a4:	21400236 	bltu	r4,r5,63b0 <udivmodsi4+0x44>
    63a8:	2149c83a 	sub	r4,r4,r5
    63ac:	1886b03a 	or	r3,r3,r2
    63b0:	1004d07a 	srli	r2,r2,1
    63b4:	280ad07a 	srli	r5,r5,1
    63b8:	103ffa1e 	bne	r2,zero,63a4 <udivmodsi4+0x38>
    63bc:	30000226 	beq	r6,zero,63c8 <udivmodsi4+0x5c>
    63c0:	2005883a 	mov	r2,r4
    63c4:	f800283a 	ret
    63c8:	1809883a 	mov	r4,r3
    63cc:	2005883a 	mov	r2,r4
    63d0:	f800283a 	ret
    63d4:	0007883a 	mov	r3,zero
    63d8:	003ff806 	br	63bc <udivmodsi4+0x50>
    63dc:	00800044 	movi	r2,1
    63e0:	0007883a 	mov	r3,zero
    63e4:	003fef06 	br	63a4 <udivmodsi4+0x38>

000063e8 <__divsi3>:
    63e8:	defffe04 	addi	sp,sp,-8
    63ec:	dc000015 	stw	r16,0(sp)
    63f0:	dfc00115 	stw	ra,4(sp)
    63f4:	0021883a 	mov	r16,zero
    63f8:	20000c16 	blt	r4,zero,642c <__divsi3+0x44>
    63fc:	000d883a 	mov	r6,zero
    6400:	28000e16 	blt	r5,zero,643c <__divsi3+0x54>
    6404:	000636c0 	call	636c <udivmodsi4>
    6408:	1007883a 	mov	r3,r2
    640c:	8005003a 	cmpeq	r2,r16,zero
    6410:	1000011e 	bne	r2,zero,6418 <__divsi3+0x30>
    6414:	00c7c83a 	sub	r3,zero,r3
    6418:	1805883a 	mov	r2,r3
    641c:	dfc00117 	ldw	ra,4(sp)
    6420:	dc000017 	ldw	r16,0(sp)
    6424:	dec00204 	addi	sp,sp,8
    6428:	f800283a 	ret
    642c:	0109c83a 	sub	r4,zero,r4
    6430:	04000044 	movi	r16,1
    6434:	000d883a 	mov	r6,zero
    6438:	283ff20e 	bge	r5,zero,6404 <__divsi3+0x1c>
    643c:	014bc83a 	sub	r5,zero,r5
    6440:	8021003a 	cmpeq	r16,r16,zero
    6444:	003fef06 	br	6404 <__divsi3+0x1c>

00006448 <__modsi3>:
    6448:	deffff04 	addi	sp,sp,-4
    644c:	dfc00015 	stw	ra,0(sp)
    6450:	01800044 	movi	r6,1
    6454:	2807883a 	mov	r3,r5
    6458:	20000416 	blt	r4,zero,646c <__modsi3+0x24>
    645c:	28000c16 	blt	r5,zero,6490 <__modsi3+0x48>
    6460:	dfc00017 	ldw	ra,0(sp)
    6464:	dec00104 	addi	sp,sp,4
    6468:	000636c1 	jmpi	636c <udivmodsi4>
    646c:	0109c83a 	sub	r4,zero,r4
    6470:	28000b16 	blt	r5,zero,64a0 <__modsi3+0x58>
    6474:	180b883a 	mov	r5,r3
    6478:	01800044 	movi	r6,1
    647c:	000636c0 	call	636c <udivmodsi4>
    6480:	0085c83a 	sub	r2,zero,r2
    6484:	dfc00017 	ldw	ra,0(sp)
    6488:	dec00104 	addi	sp,sp,4
    648c:	f800283a 	ret
    6490:	014bc83a 	sub	r5,zero,r5
    6494:	dfc00017 	ldw	ra,0(sp)
    6498:	dec00104 	addi	sp,sp,4
    649c:	000636c1 	jmpi	636c <udivmodsi4>
    64a0:	0147c83a 	sub	r3,zero,r5
    64a4:	003ff306 	br	6474 <__modsi3+0x2c>

000064a8 <__udivsi3>:
    64a8:	000d883a 	mov	r6,zero
    64ac:	000636c1 	jmpi	636c <udivmodsi4>

000064b0 <__umodsi3>:
    64b0:	01800044 	movi	r6,1
    64b4:	000636c1 	jmpi	636c <udivmodsi4>

000064b8 <alt_main>:
 * devices/filesystems/components in the system; and call the entry point for
 * the users application, i.e. main().
 */

void alt_main (void)
{
    64b8:	deffff04 	addi	sp,sp,-4
#endif

  /* ALT LOG - please see HAL/sys/alt_log_printf.h for details */
  ALT_LOG_PRINT_BOOT("[alt_main.c] Entering alt_main, calling alt_irq_init.\r\n");
  /* Initialize the interrupt controller. */
  alt_irq_init (NULL);
    64bc:	0009883a 	mov	r4,zero
 * devices/filesystems/components in the system; and call the entry point for
 * the users application, i.e. main().
 */

void alt_main (void)
{
    64c0:	dfc00015 	stw	ra,0(sp)
#endif

  /* ALT LOG - please see HAL/sys/alt_log_printf.h for details */
  ALT_LOG_PRINT_BOOT("[alt_main.c] Entering alt_main, calling alt_irq_init.\r\n");
  /* Initialize the interrupt controller. */
  alt_irq_init (NULL);
    64c4:	00064ec0 	call	64ec <alt_irq_init>
  ALT_LOG_PRINT_BOOT("[alt_main.c] Done OS Init, calling alt_sem_create.\r\n");
  ALT_SEM_CREATE (&alt_fd_list_lock, 1);

  /* Initialize the device drivers/software components. */
  ALT_LOG_PRINT_BOOT("[alt_main.c] Calling alt_sys_init.\r\n");
  alt_sys_init();
    64c8:	00064e80 	call	64e8 <alt_sys_init>
   */

  ALT_LOG_PRINT_BOOT("[alt_main.c] Calling main.\r\n");

#ifdef ALT_NO_EXIT
  main (alt_argc, alt_argv, alt_envp);
    64cc:	d1200317 	ldw	r4,-32756(gp)
    64d0:	d1600417 	ldw	r5,-32752(gp)
    64d4:	d1a00517 	ldw	r6,-32748(gp)
  close(STDOUT_FILENO);
  exit (result);
#endif

  ALT_LOG_PRINT_BOOT("[alt_main.c] After main - we should not be here?.\r\n");
}
    64d8:	dfc00017 	ldw	ra,0(sp)
    64dc:	dec00104 	addi	sp,sp,4
   */

  ALT_LOG_PRINT_BOOT("[alt_main.c] Calling main.\r\n");

#ifdef ALT_NO_EXIT
  main (alt_argc, alt_argv, alt_envp);
    64e0:	00044e81 	jmpi	44e8 <main>

000064e4 <usleep>:
int ALT_USLEEP (useconds_t us)
#else
unsigned int ALT_USLEEP (unsigned int us)
#endif
{
  return alt_busy_sleep(us);
    64e4:	000650c1 	jmpi	650c <alt_busy_sleep>

000064e8 <alt_sys_init>:
void alt_sys_init( void )
{
    ALTERA_AVALON_EPCS_FLASH_CONTROLLER_INIT ( EPCS, epcs);
    ALTERA_AVALON_JTAG_UART_INIT ( JTAG, jtag);
    ALTERA_AVALON_SYSID_QSYS_INIT ( SYSID, sysid);
}
    64e8:	f800283a 	ret

000064ec <alt_irq_init>:
 * The "base" parameter is ignored and only
 * present for backwards-compatibility.
 */

void alt_irq_init ( const void* base )
{
    64ec:	deffff04 	addi	sp,sp,-4
    64f0:	dfc00015 	stw	ra,0(sp)
    ALTERA_NIOS2_QSYS_IRQ_INIT ( NIOS2, nios2);
    64f4:	00065980 	call	6598 <altera_nios2_qsys_irq_init>
 * alt_irq_cpu_enable_interrupts() enables the CPU to start taking interrupts.
 */
static ALT_INLINE void ALT_ALWAYS_INLINE 
       alt_irq_cpu_enable_interrupts ()
{
    NIOS2_WRITE_STATUS(NIOS2_STATUS_PIE_MSK
    64f8:	00800044 	movi	r2,1
    64fc:	1001703a 	wrctl	status,r2
    alt_irq_cpu_enable_interrupts();
}
    6500:	dfc00017 	ldw	ra,0(sp)
    6504:	dec00104 	addi	sp,sp,4
    6508:	f800283a 	ret

0000650c <alt_busy_sleep>:
#include "alt_types.h"

#include "priv/alt_busy_sleep.h"

unsigned int alt_busy_sleep (unsigned int us)
{
    650c:	defffe04 	addi	sp,sp,-8
  {
    cycles_per_loop = 3;
  }
  

  big_loops = us / (INT_MAX/
    6510:	0142e8f4 	movhi	r5,2979
    6514:	297a2e84 	addi	r5,r5,-5958
#include "alt_types.h"

#include "priv/alt_busy_sleep.h"

unsigned int alt_busy_sleep (unsigned int us)
{
    6518:	dc000015 	stw	r16,0(sp)
    651c:	dfc00115 	stw	ra,4(sp)
    6520:	2021883a 	mov	r16,r4
  {
    cycles_per_loop = 3;
  }
  

  big_loops = us / (INT_MAX/
    6524:	00064a80 	call	64a8 <__udivsi3>
  (ALT_CPU_FREQ/(cycles_per_loop * 1000000)));

  if (big_loops)
    6528:	10001126 	beq	r2,zero,6570 <alt_busy_sleep+0x64>
    652c:	0007883a 	mov	r3,zero
    6530:	01200034 	movhi	r4,32768
    6534:	213fffc4 	addi	r4,r4,-1
    6538:	017d1774 	movhi	r5,62557
    653c:	2945d184 	addi	r5,r5,5958
    6540:	00000406 	br	6554 <alt_busy_sleep+0x48>
      /*
      * Do NOT Try to single step the asm statement below 
      * (single step will never return)
      * Step out of this function or set a breakpoint after the asm statements
      */
      __asm__ volatile (
    6544:	213fffc4 	addi	r4,r4,-1
    6548:	203ffe1e 	bne	r4,zero,6544 <alt_busy_sleep+0x38>
        "\n1:"
        "\n\t.pushsection .debug_alt_sim_info"
        "\n\t.int 4, 0, 0b, 1b"
        "\n\t.popsection"
        :: "r" (INT_MAX));
      us -= (INT_MAX/(ALT_CPU_FREQ/
    654c:	8161883a 	add	r16,r16,r5
  big_loops = us / (INT_MAX/
  (ALT_CPU_FREQ/(cycles_per_loop * 1000000)));

  if (big_loops)
  {
    for(i=0;i<big_loops;i++)
    6550:	18c00044 	addi	r3,r3,1
    6554:	18bffb16 	blt	r3,r2,6544 <alt_busy_sleep+0x38>
    /*
    * Do NOT Try to single step the asm statement below 
    * (single step will never return)
    * Step out of this function or set a breakpoint after the asm statements
    */
    __asm__ volatile (
    6558:	8009883a 	mov	r4,r16
    655c:	014002c4 	movi	r5,11
    6560:	00059c80 	call	59c8 <__mulsi3>
    6564:	10bfffc4 	addi	r2,r2,-1
    6568:	103ffe1e 	bne	r2,zero,6564 <alt_busy_sleep+0x58>
    656c:	00000506 	br	6584 <alt_busy_sleep+0x78>
    /*
    * Do NOT Try to single step the asm statement below 
    * (single step will never return)
    * Step out of this function or set a breakpoint after the asm statements
    */
    __asm__ volatile (
    6570:	8009883a 	mov	r4,r16
    6574:	014002c4 	movi	r5,11
    6578:	00059c80 	call	59c8 <__mulsi3>
    657c:	10bfffc4 	addi	r2,r2,-1
    6580:	00bffe16 	blt	zero,r2,657c <alt_busy_sleep+0x70>
      "\n\t.popsection"
      :: "r" (us*(ALT_CPU_FREQ/(cycles_per_loop * 1000000))));
  }
#endif /* #ifndef ALT_SIM_OPTIMIZE */
  return 0;
}
    6584:	0005883a 	mov	r2,zero
    6588:	dfc00117 	ldw	ra,4(sp)
    658c:	dc000017 	ldw	r16,0(sp)
    6590:	dec00204 	addi	sp,sp,8
    6594:	f800283a 	ret

00006598 <altera_nios2_qsys_irq_init>:
 * To initialize the internal interrupt controller, just clear the IENABLE
 * register so that all possible IRQs are disabled.
 */
void altera_nios2_qsys_irq_init(void) 
{
    NIOS2_WRITE_IENABLE(0);
    6598:	000170fa 	wrctl	ienable,zero
}
    659c:	f800283a 	ret
